
Robockey.elf:     file format elf32-avr

Sections:
Idx Name          Size      VMA       LMA       File off  Algn
  0 .data         00000008  00800100  00000cf4  00000d88  2**0
                  CONTENTS, ALLOC, LOAD, DATA
  1 .text         00000cf4  00000000  00000000  00000094  2**1
                  CONTENTS, ALLOC, LOAD, READONLY, CODE
  2 .bss          00000005  00800108  00800108  00000d90  2**0
                  ALLOC
  3 .stab         00000804  00000000  00000000  00000d90  2**2
                  CONTENTS, READONLY, DEBUGGING
  4 .stabstr      000002ed  00000000  00000000  00001594  2**0
                  CONTENTS, READONLY, DEBUGGING
  5 .comment      0000002f  00000000  00000000  00001881  2**0
                  CONTENTS, READONLY
  6 .debug_aranges 00000298  00000000  00000000  000018b0  2**0
                  CONTENTS, READONLY, DEBUGGING
  7 .debug_info   000028d5  00000000  00000000  00001b48  2**0
                  CONTENTS, READONLY, DEBUGGING
  8 .debug_abbrev 00000932  00000000  00000000  0000441d  2**0
                  CONTENTS, READONLY, DEBUGGING
  9 .debug_line   00000f9b  00000000  00000000  00004d4f  2**0
                  CONTENTS, READONLY, DEBUGGING
 10 .debug_frame  000006b0  00000000  00000000  00005cec  2**2
                  CONTENTS, READONLY, DEBUGGING
 11 .debug_str    000006f7  00000000  00000000  0000639c  2**0
                  CONTENTS, READONLY, DEBUGGING
 12 .debug_loc    00002697  00000000  00000000  00006a93  2**0
                  CONTENTS, READONLY, DEBUGGING
 13 .debug_ranges 00000278  00000000  00000000  0000912a  2**0
                  CONTENTS, READONLY, DEBUGGING

Disassembly of section .text:

00000000 <__vectors>:
	
	return 1;
}

char m_rf_read(char* buffer, char packet_length)
{
   0:	0c 94 b0 00 	jmp	0x160	; 0x160 <__ctors_end>

	char bytes;
	int i;

	// START
	TWCR = (1<<TWEN)|(1<<TWSTA)|(1<<TWINT);
   4:	0c 94 cd 00 	jmp	0x19a	; 0x19a <__bad_interrupt>
   8:	0c 94 cd 00 	jmp	0x19a	; 0x19a <__bad_interrupt>
	while(!(TWCR & (1<<TWINT))){};
   c:	0c 94 cd 00 	jmp	0x19a	; 0x19a <__bad_interrupt>
  10:	0c 94 cd 00 	jmp	0x19a	; 0x19a <__bad_interrupt>
	
	// ADDRESS (in Master-Receiver Mode)
	TWDR = ((MRFTWIADDR<<1)|1);
  14:	0c 94 cd 00 	jmp	0x19a	; 0x19a <__bad_interrupt>
  18:	0c 94 cd 00 	jmp	0x19a	; 0x19a <__bad_interrupt>
	TWCR = (1<<TWINT) | (1<<TWEN);
  1c:	0c 94 cd 00 	jmp	0x19a	; 0x19a <__bad_interrupt>
	while(!(TWCR & (1<<TWINT))){}; // wait until finished sending address
  20:	0c 94 cd 00 	jmp	0x19a	; 0x19a <__bad_interrupt>
  24:	0c 94 cd 00 	jmp	0x19a	; 0x19a <__bad_interrupt>
  28:	0c 94 c2 03 	jmp	0x784	; 0x784 <__vector_10>
	if((TWSR & 0xF8)== 0x48){ // ACK was not received
  2c:	0c 94 00 04 	jmp	0x800	; 0x800 <__vector_11>
  30:	0c 94 cd 00 	jmp	0x19a	; 0x19a <__bad_interrupt>
		TWCR = (1<<TWINT)|(1<<TWEN)| (1<<TWSTO); // let go of the line (STOP)
  34:	0c 94 cd 00 	jmp	0x19a	; 0x19a <__bad_interrupt>
  38:	0c 94 cd 00 	jmp	0x19a	; 0x19a <__bad_interrupt>
		return 0; // not connected/listening
  3c:	0c 94 cd 00 	jmp	0x19a	; 0x19a <__bad_interrupt>
	}
	

	// (BYTES)
	TWCR = (1<<TWINT) | (1<<TWEA) | (1<<TWEN);	// clear the flag, enable ACKs, and wait for another byte
  40:	0c 94 cd 00 	jmp	0x19a	; 0x19a <__bad_interrupt>
	while(!(TWCR & (1<<TWINT))){}; // wait for an interrupt to signal that a new byte is available
  44:	0c 94 cd 00 	jmp	0x19a	; 0x19a <__bad_interrupt>
  48:	0c 94 cd 00 	jmp	0x19a	; 0x19a <__bad_interrupt>
  4c:	0c 94 cd 00 	jmp	0x19a	; 0x19a <__bad_interrupt>
	bytes = TWDR;
  50:	0c 94 cd 00 	jmp	0x19a	; 0x19a <__bad_interrupt>
	if(bytes != packet_length){
  54:	0c 94 cd 00 	jmp	0x19a	; 0x19a <__bad_interrupt>
		TWCR = (1<<TWINT)|(1<<TWEN)| (1<<TWSTO); // let go of the line (STOP)
		return 0; // indicate length mismatch
	}		
	
	// (DATA_0 ... DATA_N)
	for(i=0;i<(bytes-1);i++)
  58:	0c 94 cd 00 	jmp	0x19a	; 0x19a <__bad_interrupt>
  5c:	0c 94 cd 00 	jmp	0x19a	; 0x19a <__bad_interrupt>
  60:	0c 94 cd 00 	jmp	0x19a	; 0x19a <__bad_interrupt>
  64:	0c 94 cd 00 	jmp	0x19a	; 0x19a <__bad_interrupt>
	// (BYTES)
	TWCR = (1<<TWINT) | (1<<TWEA) | (1<<TWEN);	// clear the flag, enable ACKs, and wait for another byte
	while(!(TWCR & (1<<TWINT))){}; // wait for an interrupt to signal that a new byte is available
	bytes = TWDR;
	if(bytes != packet_length){
		TWCR = (1<<TWINT)|(1<<TWEN)| (1<<TWSTO); // let go of the line (STOP)
  68:	0c 94 cd 00 	jmp	0x19a	; 0x19a <__bad_interrupt>
  6c:	0c 94 cd 00 	jmp	0x19a	; 0x19a <__bad_interrupt>
		return 0; // indicate length mismatch
  70:	0c 94 cd 00 	jmp	0x19a	; 0x19a <__bad_interrupt>
	}		
	
	// (DATA_0 ... DATA_N)
	for(i=0;i<(bytes-1);i++)
  74:	0c 94 5c 06 	jmp	0xcb8	; 0xcb8 <__vector_29>
	{
		TWCR = (1<<TWINT) | (1<<TWEA) | (1<<TWEN);	// clear the flag, enable ACKs, and wait for another byte
  78:	0c 94 cd 00 	jmp	0x19a	; 0x19a <__bad_interrupt>
  7c:	0c 94 cd 00 	jmp	0x19a	; 0x19a <__bad_interrupt>
		while(!(TWCR & (1<<TWINT))){}; // wait for an interrupt to signal that a new byte is available
		buffer[i] = TWDR;
  80:	0c 94 cd 00 	jmp	0x19a	; 0x19a <__bad_interrupt>
	
	// (DATA_0 ... DATA_N)
	for(i=0;i<(bytes-1);i++)
	{
		TWCR = (1<<TWINT) | (1<<TWEA) | (1<<TWEN);	// clear the flag, enable ACKs, and wait for another byte
		while(!(TWCR & (1<<TWINT))){}; // wait for an interrupt to signal that a new byte is available
  84:	0c 94 cd 00 	jmp	0x19a	; 0x19a <__bad_interrupt>
  88:	0c 94 cd 00 	jmp	0x19a	; 0x19a <__bad_interrupt>
		buffer[i] = TWDR;
  8c:	0c 94 cd 00 	jmp	0x19a	; 0x19a <__bad_interrupt>
		TWCR = (1<<TWINT)|(1<<TWEN)| (1<<TWSTO); // let go of the line (STOP)
		return 0; // indicate length mismatch
	}		
	
	// (DATA_0 ... DATA_N)
	for(i=0;i<(bytes-1);i++)
  90:	0c 94 cd 00 	jmp	0x19a	; 0x19a <__bad_interrupt>
  94:	0c 94 cd 00 	jmp	0x19a	; 0x19a <__bad_interrupt>
	{
		TWCR = (1<<TWINT) | (1<<TWEA) | (1<<TWEN);	// clear the flag, enable ACKs, and wait for another byte
		while(!(TWCR & (1<<TWINT))){}; // wait for an interrupt to signal that a new byte is available
		buffer[i] = TWDR;
	}
	TWCR = (1<<TWINT) | (1<<TWEN);	// clear the flag, no ACK, and wait for another byte
  98:	0c 94 cd 00 	jmp	0x19a	; 0x19a <__bad_interrupt>
  9c:	0c 94 cd 00 	jmp	0x19a	; 0x19a <__bad_interrupt>
	while(!(TWCR & (1<<TWINT))){}; // wait for an interrupt to signal that a new byte is available
  a0:	0c 94 cd 00 	jmp	0x19a	; 0x19a <__bad_interrupt>
  a4:	0c 94 cd 00 	jmp	0x19a	; 0x19a <__bad_interrupt>
	buffer[i++] = TWDR;
  a8:	0c 94 cd 00 	jmp	0x19a	; 0x19a <__bad_interrupt>

000000ac <descriptor_list>:
  ac:	00 01 00 00 e0 00 12 00 02 00 00 f2 00 43 00 03     .............C..
	
	// STOP
	TWCR = (1<<TWINT)|(1<<TWEN)| (1<<TWSTO);

	return 1;
}
  bc:	00 00 35 01 04 01 03 09 04 39 01 12 02 03 09 04     ..5......9......
	m_wait(INTERPACKET);
	
	// sensitivity setting, part 2
	if(!start_write(MWIITWIADDR)){return 0;}
	if(!send_byte(0x07)){return 0;}
	if(!send_byte(0x00)){return 0;}
  cc:	4d 01 06 03 03 09 04 55 01 08                       M......U..

000000d6 <endpoint_config_table>:
  d6:	00 01 c1 12 01 80 36 01 81 36                       ......6..6

000000e0 <device_descriptor>:
	if(!send_byte(0x41)){return 0;} // p1
  e0:	12 01 00 02 02 00 00 10 c0 16 7a 04 00 01 01 02     ..........z.....
	#else
		//round up by default
		__ticks_dc = (uint32_t)(ceil(fabs(__tmp)));
	#endif

	__builtin_avr_delay_cycles(__ticks_dc);
  f0:	03 01                                               ..

000000f2 <config1_descriptor>:
  f2:	09 02 43 00 02 01 00 c0 32 09 04 00 00 01 02 02     ..C.....2.......

	m_wait(INTERPACKET);
	
	// sensitivity setting, part 3
	if(!start_write(MWIITWIADDR)){return 0;}
	if(!send_byte(0x1A)){return 0;}
 102:	01 00 05 24 00 10 01 05 24 01 01 01 04 24 02 06     ...$....$....$..
	if(!send_byte(0x40)){return 0;} // p2
 112:	05 24 06 00 01 07 05 82 03 10 00 40 09 04 01 00     .$.........@....
	if(!send_byte(0x00)){return 0;} // p3
 122:	02 0a 00 00 00 07 05 03 02 40 00 00 07 05 84 02     .........@......
 132:	40 00 00                                            @..

00000135 <string0>:
	end();

	m_wait(INTERPACKET);
	
	// not quite sure
	if(!start_write(MWIITWIADDR)){return 0;}
 135:	04 03 09 04                                         ....

00000139 <string1>:
 139:	12 03 4a 00 2e 00 20 00 46 00 69 00 65 00 6e 00     ..J... .F.i.e.n.
	if(!send_byte(0x33)){return 0;}
 149:	65 00 00 00                                         e...

0000014d <string2>:
	if(!send_byte(0x03)){return 0;}
 14d:	06 03 4d 00 32 00 00 00                             ..M.2...

00000155 <string3>:
 155:	08 03 34 00 31 00 30 00 00 00 00                    ..4.1.0....

00000160 <__ctors_end>:
 160:	11 24       	eor	r1, r1
 162:	1f be       	out	0x3f, r1	; 63
 164:	cf ef       	ldi	r28, 0xFF	; 255
 166:	da e0       	ldi	r29, 0x0A	; 10
	end();

	m_wait(INTERPACKET);
	
	// not quite sure
	if(!start_write(MWIITWIADDR)){return 0;}
 168:	de bf       	out	0x3e, r29	; 62
 16a:	cd bf       	out	0x3d, r28	; 61

0000016c <__do_copy_data>:
 16c:	11 e0       	ldi	r17, 0x01	; 1
 16e:	a0 e0       	ldi	r26, 0x00	; 0
 170:	b1 e0       	ldi	r27, 0x01	; 1
 172:	e4 ef       	ldi	r30, 0xF4	; 244
	if(!send_byte(0x30)){return 0;}
 174:	fc e0       	ldi	r31, 0x0C	; 12
 176:	02 c0       	rjmp	.+4      	; 0x17c <__do_copy_data+0x10>
 178:	05 90       	lpm	r0, Z+
 17a:	0d 92       	st	X+, r0
 17c:	a8 30       	cpi	r26, 0x08	; 8
 17e:	b1 07       	cpc	r27, r17
	if(!send_byte(0x08)){return 0;}
 180:	d9 f7       	brne	.-10     	; 0x178 <__do_copy_data+0xc>

00000182 <__do_clear_bss>:
 182:	21 e0       	ldi	r18, 0x01	; 1
 184:	a8 e0       	ldi	r26, 0x08	; 8
 186:	b1 e0       	ldi	r27, 0x01	; 1
 188:	01 c0       	rjmp	.+2      	; 0x18c <.do_clear_bss_start>

0000018a <.do_clear_bss_loop>:
	end();
 18a:	1d 92       	st	X+, r1

0000018c <.do_clear_bss_start>:
 18c:	ad 30       	cpi	r26, 0x0D	; 13
 18e:	b2 07       	cpc	r27, r18
 190:	e1 f7       	brne	.-8      	; 0x18a <.do_clear_bss_loop>
 192:	0e 94 88 05 	call	0xb10	; 0xb10 <main>
 196:	0c 94 78 06 	jmp	0xcf0	; 0xcf0 <_exit>

0000019a <__bad_interrupt>:
	
	m_wait(INTERPACKET);

	return 1;
 19a:	0c 94 00 00 	jmp	0	; 0x0 <__vectors>

0000019e <m_bus_init>:
char m_wii_open()
{	
	m_bus_init();

	// enter configuration mode
	if(!start_write(MWIITWIADDR)){return 0;}
 19e:	58 9a       	sbi	0x0b, 0	; 11
 1a0:	59 9a       	sbi	0x0b, 1	; 11
	if(!send_byte(0x30)){return 0;}
 1a2:	5a 9a       	sbi	0x0b, 2	; 11
 1a4:	8c e0       	ldi	r24, 0x0C	; 12
	if(!send_byte(0x01)){return 0;}
 1a6:	80 93 b8 00 	sts	0x00B8, r24
	end();
	m_wait(INTERPACKET);
		
	// sensitivity setting, part 1
	if(!start_write(MWIITWIADDR)){return 0;}
 1aa:	e9 e6       	ldi	r30, 0x69	; 105
 1ac:	f0 e0       	ldi	r31, 0x00	; 0
	if(!send_byte(0x00)){return 0;}
 1ae:	80 81       	ld	r24, Z
 1b0:	80 62       	ori	r24, 0x20	; 32
	if(!send_byte(0x00)){return 0;}
 1b2:	80 83       	st	Z, r24
 1b4:	80 81       	ld	r24, Z
	if(!send_byte(0x00)){return 0;}
 1b6:	8f 7e       	andi	r24, 0xEF	; 239
 1b8:	80 83       	st	Z, r24
	if(!send_byte(0x00)){return 0;}
 1ba:	ea 9a       	sbi	0x1d, 2	; 29
 1bc:	78 94       	sei
	if(!send_byte(0x00)){return 0;}
 1be:	08 95       	ret

000001c0 <twi_read_byte>:
 1c0:	84 e8       	ldi	r24, 0x84	; 132
	if(!send_byte(0x00)){return 0;}
 1c2:	80 93 bc 00 	sts	0x00BC, r24
	if(!send_byte(0x00)){return 0;}
 1c6:	ec eb       	ldi	r30, 0xBC	; 188
 1c8:	f0 e0       	ldi	r31, 0x00	; 0
	if(!send_byte(0x90)){return 0;} // p0
 1ca:	80 81       	ld	r24, Z
 1cc:	88 23       	and	r24, r24
	end();

	m_wait(INTERPACKET);
	
	// sensitivity setting, part 2
	if(!start_write(MWIITWIADDR)){return 0;}
 1ce:	ec f7       	brge	.-6      	; 0x1ca <twi_read_byte+0xa>
 1d0:	80 91 bb 00 	lds	r24, 0x00BB
	if(!send_byte(0x07)){return 0;}
 1d4:	08 95       	ret

000001d6 <twi_stop>:
	if(!send_byte(0x00)){return 0;}
 1d6:	84 e9       	ldi	r24, 0x94	; 148
 1d8:	80 93 bc 00 	sts	0x00BC, r24
	if(!send_byte(0x41)){return 0;} // p1
 1dc:	08 95       	ret

000001de <twi_wait_for_ack>:
	end();

	m_wait(INTERPACKET);
	
	// sensitivity setting, part 3
	if(!start_write(MWIITWIADDR)){return 0;}
 1de:	20 e0       	ldi	r18, 0x00	; 0
 1e0:	30 e0       	ldi	r19, 0x00	; 0
	if(!send_byte(0x1A)){return 0;}
 1e2:	ec eb       	ldi	r30, 0xBC	; 188
 1e4:	f0 e0       	ldi	r31, 0x00	; 0
	if(!send_byte(0x40)){return 0;} // p2
 1e6:	80 81       	ld	r24, Z
 1e8:	88 23       	and	r24, r24
	if(!send_byte(0x00)){return 0;} // p3
 1ea:	34 f0       	brlt	.+12     	; 0x1f8 <twi_wait_for_ack+0x1a>
 1ec:	2f 5f       	subi	r18, 0xFF	; 255
	end();

	m_wait(INTERPACKET);
	
	// not quite sure
	if(!start_write(MWIITWIADDR)){return 0;}
 1ee:	3f 4f       	sbci	r19, 0xFF	; 255
 1f0:	29 3e       	cpi	r18, 0xE9	; 233
	if(!send_byte(0x33)){return 0;}
 1f2:	83 e0       	ldi	r24, 0x03	; 3
 1f4:	38 07       	cpc	r19, r24
	if(!send_byte(0x03)){return 0;}
 1f6:	b9 f7       	brne	.-18     	; 0x1e6 <twi_wait_for_ack+0x8>
 1f8:	81 e0       	ldi	r24, 0x01	; 1
	end();

	m_wait(INTERPACKET);
	
	// not quite sure
	if(!start_write(MWIITWIADDR)){return 0;}
 1fa:	28 3e       	cpi	r18, 0xE8	; 232
 1fc:	33 40       	sbci	r19, 0x03	; 3
	if(!send_byte(0x30)){return 0;}
 1fe:	09 f4       	brne	.+2      	; 0x202 <twi_wait_for_ack+0x24>
 200:	80 e0       	ldi	r24, 0x00	; 0
	if(!send_byte(0x08)){return 0;}
 202:	08 95       	ret

00000204 <twi_send_byte>:
	end();
	
	m_wait(INTERPACKET);

	return 1;
}
 204:	80 93 bb 00 	sts	0x00BB, r24

// TWI: send BYTE, wait for ACK
unsigned char twi_send_byte(unsigned char byte)
{
	TWDR = byte;					// load the byte
	TWCR = (1<<TWINT) | (1<<TWEN);	// send the byte
 208:	84 e8       	ldi	r24, 0x84	; 132
 20a:	80 93 bc 00 	sts	0x00BC, r24
	return (twi_wait_for_ack()) ? (TWSR & 0xF8) : 0 ;
 20e:	0e 94 ef 00 	call	0x1de	; 0x1de <twi_wait_for_ack>
 212:	88 23       	and	r24, r24
 214:	21 f0       	breq	.+8      	; 0x21e <twi_send_byte+0x1a>
 216:	80 91 b9 00 	lds	r24, 0x00B9
 21a:	88 7f       	andi	r24, 0xF8	; 248
 21c:	08 95       	ret
 21e:	80 e0       	ldi	r24, 0x00	; 0
}
 220:	08 95       	ret

00000222 <twi_start>:
// PRIVATE FUNCTIONS:

// TWI: send START condition, wait for ACK, send ADDRESS with R/W flag
// readwrite = 1 for read, 0 for write
unsigned char twi_start(unsigned char address, unsigned char readwrite)
{
 222:	cf 93       	push	r28
 224:	df 93       	push	r29
 226:	c8 2f       	mov	r28, r24
 228:	d6 2f       	mov	r29, r22
    unsigned char status;
    
    // START packet:
    TWCR = (1<<TWEN)|(1<<TWSTA)|(1<<TWINT);
 22a:	94 ea       	ldi	r25, 0xA4	; 164
 22c:	90 93 bc 00 	sts	0x00BC, r25
    if(!twi_wait_for_ack()){
 230:	0e 94 ef 00 	call	0x1de	; 0x1de <twi_wait_for_ack>
 234:	81 11       	cpse	r24, r1
 236:	04 c0       	rjmp	.+8      	; 0x240 <twi_start+0x1e>
        twi_stop();
 238:	0e 94 eb 00 	call	0x1d6	; 0x1d6 <twi_stop>
        return 0; // COMM failure
 23c:	80 e0       	ldi	r24, 0x00	; 0
 23e:	1a c0       	rjmp	.+52     	; 0x274 <twi_start+0x52>
    }
    
    // ADDRESS packet:
    if(readwrite)
 240:	dd 23       	and	r29, r29
 242:	59 f0       	breq	.+22     	; 0x25a <twi_start+0x38>
    { // READ
        status = twi_send_byte(((address<<1) + 1));
 244:	8c 2f       	mov	r24, r28
 246:	88 0f       	add	r24, r24
 248:	8f 5f       	subi	r24, 0xFF	; 255
 24a:	0e 94 02 01 	call	0x204	; 0x204 <twi_send_byte>
        if(status== 0x48){ // ACK was not received - may not be connected/listening
 24e:	88 34       	cpi	r24, 0x48	; 72
 250:	71 f4       	brne	.+28     	; 0x26e <twi_start+0x4c>
            twi_stop();    
 252:	0e 94 eb 00 	call	0x1d6	; 0x1d6 <twi_stop>
            return 0;	// failure
 256:	80 e0       	ldi	r24, 0x00	; 0
 258:	0d c0       	rjmp	.+26     	; 0x274 <twi_start+0x52>
        }	
    } else { // WRITE
        status = twi_send_byte(address<<1);
 25a:	8c 2f       	mov	r24, r28
 25c:	88 0f       	add	r24, r24
 25e:	0e 94 02 01 	call	0x204	; 0x204 <twi_send_byte>
        if(status== 0x20){ // ACK was not received - may not be connected/listening
 262:	80 32       	cpi	r24, 0x20	; 32
 264:	31 f4       	brne	.+12     	; 0x272 <twi_start+0x50>
            twi_stop();
 266:	0e 94 eb 00 	call	0x1d6	; 0x1d6 <twi_stop>
            return 0;	// failure
 26a:	80 e0       	ldi	r24, 0x00	; 0
 26c:	03 c0       	rjmp	.+6      	; 0x274 <twi_start+0x52>
        }	        
    }
    return 1;	// success
 26e:	81 e0       	ldi	r24, 0x01	; 1
 270:	01 c0       	rjmp	.+2      	; 0x274 <twi_start+0x52>
 272:	81 e0       	ldi	r24, 0x01	; 1
    
}
 274:	df 91       	pop	r29
 276:	cf 91       	pop	r28
 278:	08 95       	ret

0000027a <m_write_register>:
    if(!twi_start(addr,READ)) return 0;  // START + R
	return(twi_read_byte());             // return register value
}

unsigned char m_write_register(unsigned char addr, unsigned char reg, unsigned char value)
{
 27a:	cf 93       	push	r28
 27c:	df 93       	push	r29
 27e:	c6 2f       	mov	r28, r22
 280:	d4 2f       	mov	r29, r20
    if(!twi_start(addr,WRITE)) return 0; // START + W
 282:	60 e0       	ldi	r22, 0x00	; 0
 284:	0e 94 11 01 	call	0x222	; 0x222 <twi_start>
 288:	88 23       	and	r24, r24
 28a:	71 f0       	breq	.+28     	; 0x2a8 <m_write_register+0x2e>
	if(!twi_send_byte(reg)) return 0;    // register to write to
 28c:	8c 2f       	mov	r24, r28
 28e:	0e 94 02 01 	call	0x204	; 0x204 <twi_send_byte>
 292:	88 23       	and	r24, r24
 294:	59 f0       	breq	.+22     	; 0x2ac <m_write_register+0x32>
    if(!twi_send_byte(value)) return 0;  // value
 296:	8d 2f       	mov	r24, r29
 298:	0e 94 02 01 	call	0x204	; 0x204 <twi_send_byte>
 29c:	88 23       	and	r24, r24
 29e:	41 f0       	breq	.+16     	; 0x2b0 <m_write_register+0x36>
    twi_stop();                          // STOP
 2a0:	0e 94 eb 00 	call	0x1d6	; 0x1d6 <twi_stop>
    return(1);
 2a4:	81 e0       	ldi	r24, 0x01	; 1
 2a6:	05 c0       	rjmp	.+10     	; 0x2b2 <m_write_register+0x38>
	return(twi_read_byte());             // return register value
}

unsigned char m_write_register(unsigned char addr, unsigned char reg, unsigned char value)
{
    if(!twi_start(addr,WRITE)) return 0; // START + W
 2a8:	80 e0       	ldi	r24, 0x00	; 0
 2aa:	03 c0       	rjmp	.+6      	; 0x2b2 <m_write_register+0x38>
	if(!twi_send_byte(reg)) return 0;    // register to write to
 2ac:	80 e0       	ldi	r24, 0x00	; 0
 2ae:	01 c0       	rjmp	.+2      	; 0x2b2 <m_write_register+0x38>
    if(!twi_send_byte(value)) return 0;  // value
 2b0:	80 e0       	ldi	r24, 0x00	; 0
    twi_stop();                          // STOP
    return(1);
}
 2b2:	df 91       	pop	r29
 2b4:	cf 91       	pop	r28
 2b6:	08 95       	ret

000002b8 <m_read_register>:
	set(EIMSK,INT2); // demask the interrupt
	sei(); // enable global interrupts
}

unsigned char m_read_register(unsigned char addr, unsigned char reg)
{
 2b8:	cf 93       	push	r28
 2ba:	df 93       	push	r29
 2bc:	c8 2f       	mov	r28, r24
 2be:	d6 2f       	mov	r29, r22
    if(!twi_start(addr,WRITE)) return 0; // START + W
 2c0:	60 e0       	ldi	r22, 0x00	; 0
 2c2:	0e 94 11 01 	call	0x222	; 0x222 <twi_start>
 2c6:	88 23       	and	r24, r24
 2c8:	81 f0       	breq	.+32     	; 0x2ea <m_read_register+0x32>
	if(!twi_send_byte(reg)) return 0;    // register to read
 2ca:	8d 2f       	mov	r24, r29
 2cc:	0e 94 02 01 	call	0x204	; 0x204 <twi_send_byte>
 2d0:	88 23       	and	r24, r24
 2d2:	69 f0       	breq	.+26     	; 0x2ee <m_read_register+0x36>
    twi_stop();                          // STOP
 2d4:	0e 94 eb 00 	call	0x1d6	; 0x1d6 <twi_stop>
    if(!twi_start(addr,READ)) return 0;  // START + R
 2d8:	61 e0       	ldi	r22, 0x01	; 1
 2da:	8c 2f       	mov	r24, r28
 2dc:	0e 94 11 01 	call	0x222	; 0x222 <twi_start>
 2e0:	88 23       	and	r24, r24
 2e2:	39 f0       	breq	.+14     	; 0x2f2 <m_read_register+0x3a>
	return(twi_read_byte());             // return register value
 2e4:	0e 94 e0 00 	call	0x1c0	; 0x1c0 <twi_read_byte>
 2e8:	05 c0       	rjmp	.+10     	; 0x2f4 <m_read_register+0x3c>
	sei(); // enable global interrupts
}

unsigned char m_read_register(unsigned char addr, unsigned char reg)
{
    if(!twi_start(addr,WRITE)) return 0; // START + W
 2ea:	80 e0       	ldi	r24, 0x00	; 0
 2ec:	03 c0       	rjmp	.+6      	; 0x2f4 <m_read_register+0x3c>
	if(!twi_send_byte(reg)) return 0;    // register to read
 2ee:	80 e0       	ldi	r24, 0x00	; 0
 2f0:	01 c0       	rjmp	.+2      	; 0x2f4 <m_read_register+0x3c>
    twi_stop();                          // STOP
    if(!twi_start(addr,READ)) return 0;  // START + R
 2f2:	80 e0       	ldi	r24, 0x00	; 0
	return(twi_read_byte());             // return register value
}
 2f4:	df 91       	pop	r29
 2f6:	cf 91       	pop	r28
 2f8:	08 95       	ret

000002fa <disp>:
#include "m_port.h"

#define ADDR 0x20

void disp(int num) {
	switch (num) {
 2fa:	84 30       	cpi	r24, 0x04	; 4
 2fc:	91 05       	cpc	r25, r1
 2fe:	09 f4       	brne	.+2      	; 0x302 <disp+0x8>
 300:	91 c0       	rjmp	.+290    	; 0x424 <disp+0x12a>
 302:	7c f4       	brge	.+30     	; 0x322 <disp+0x28>
 304:	81 30       	cpi	r24, 0x01	; 1
 306:	91 05       	cpc	r25, r1
 308:	09 f1       	breq	.+66     	; 0x34c <disp+0x52>
 30a:	24 f4       	brge	.+8      	; 0x314 <disp+0x1a>
 30c:	89 2b       	or	r24, r25
 30e:	09 f4       	brne	.+2      	; 0x312 <disp+0x18>
 310:	61 c1       	rjmp	.+706    	; 0x5d4 <disp+0x2da>
 312:	08 95       	ret
 314:	82 30       	cpi	r24, 0x02	; 2
 316:	91 05       	cpc	r25, r1
 318:	e9 f1       	breq	.+122    	; 0x394 <disp+0x9a>
 31a:	03 97       	sbiw	r24, 0x03	; 3
 31c:	09 f0       	breq	.+2      	; 0x320 <disp+0x26>
 31e:	7d c1       	rjmp	.+762    	; 0x61a <disp+0x320>
 320:	5d c0       	rjmp	.+186    	; 0x3dc <disp+0xe2>
 322:	87 30       	cpi	r24, 0x07	; 7
 324:	91 05       	cpc	r25, r1
 326:	09 f4       	brne	.+2      	; 0x32a <disp+0x30>
 328:	e9 c0       	rjmp	.+466    	; 0x4fc <disp+0x202>
 32a:	44 f4       	brge	.+16     	; 0x33c <disp+0x42>
 32c:	85 30       	cpi	r24, 0x05	; 5
 32e:	91 05       	cpc	r25, r1
 330:	09 f4       	brne	.+2      	; 0x334 <disp+0x3a>
 332:	9c c0       	rjmp	.+312    	; 0x46c <disp+0x172>
 334:	06 97       	sbiw	r24, 0x06	; 6
 336:	09 f0       	breq	.+2      	; 0x33a <disp+0x40>
 338:	70 c1       	rjmp	.+736    	; 0x61a <disp+0x320>
 33a:	bc c0       	rjmp	.+376    	; 0x4b4 <disp+0x1ba>
 33c:	88 30       	cpi	r24, 0x08	; 8
 33e:	91 05       	cpc	r25, r1
 340:	09 f4       	brne	.+2      	; 0x344 <disp+0x4a>
 342:	00 c1       	rjmp	.+512    	; 0x544 <disp+0x24a>
 344:	09 97       	sbiw	r24, 0x09	; 9
 346:	09 f0       	breq	.+2      	; 0x34a <disp+0x50>
 348:	68 c1       	rjmp	.+720    	; 0x61a <disp+0x320>
 34a:	20 c1       	rjmp	.+576    	; 0x58c <disp+0x292>
		case 1:
			m_port_set(ADDR,LOWERRIGHT1,LOWERRIGHT2);
 34c:	46 e0       	ldi	r20, 0x06	; 6
 34e:	62 e1       	ldi	r22, 0x12	; 18
 350:	80 e2       	ldi	r24, 0x20	; 32
 352:	0e 94 41 03 	call	0x682	; 0x682 <m_port_set>
			m_port_set(ADDR,UPPERRIGHT1,UPPERRIGHT2);
 356:	43 e0       	ldi	r20, 0x03	; 3
 358:	62 e1       	ldi	r22, 0x12	; 18
 35a:	80 e2       	ldi	r24, 0x20	; 32
 35c:	0e 94 41 03 	call	0x682	; 0x682 <m_port_set>
			m_port_clear(ADDR,TOP1,TOP2);
 360:	42 e0       	ldi	r20, 0x02	; 2
 362:	62 e1       	ldi	r22, 0x12	; 18
 364:	80 e2       	ldi	r24, 0x20	; 32
 366:	0e 94 75 03 	call	0x6ea	; 0x6ea <m_port_clear>
			m_port_clear(ADDR,UPPERLEFT1,UPPERLEFT2);
 36a:	41 e0       	ldi	r20, 0x01	; 1
 36c:	62 e1       	ldi	r22, 0x12	; 18
 36e:	80 e2       	ldi	r24, 0x20	; 32
 370:	0e 94 75 03 	call	0x6ea	; 0x6ea <m_port_clear>
			m_port_clear(ADDR,LOWERLEFT1,LOWERLEFT2);
 374:	44 e0       	ldi	r20, 0x04	; 4
 376:	62 e1       	ldi	r22, 0x12	; 18
 378:	80 e2       	ldi	r24, 0x20	; 32
 37a:	0e 94 75 03 	call	0x6ea	; 0x6ea <m_port_clear>
			m_port_clear(ADDR,BOTTOM1,BOTTOM2);
 37e:	45 e0       	ldi	r20, 0x05	; 5
 380:	62 e1       	ldi	r22, 0x12	; 18
 382:	80 e2       	ldi	r24, 0x20	; 32
 384:	0e 94 75 03 	call	0x6ea	; 0x6ea <m_port_clear>
			m_port_clear(ADDR,MIDDLE1,MIDDLE2);
 388:	40 e0       	ldi	r20, 0x00	; 0
 38a:	62 e1       	ldi	r22, 0x12	; 18
 38c:	80 e2       	ldi	r24, 0x20	; 32
 38e:	0e 94 75 03 	call	0x6ea	; 0x6ea <m_port_clear>
			break;
 392:	08 95       	ret
		case 2:
			m_port_clear(ADDR,LOWERRIGHT1,LOWERRIGHT2);
 394:	46 e0       	ldi	r20, 0x06	; 6
 396:	62 e1       	ldi	r22, 0x12	; 18
 398:	80 e2       	ldi	r24, 0x20	; 32
 39a:	0e 94 75 03 	call	0x6ea	; 0x6ea <m_port_clear>
			m_port_set(ADDR,UPPERRIGHT1,UPPERRIGHT2);
 39e:	43 e0       	ldi	r20, 0x03	; 3
 3a0:	62 e1       	ldi	r22, 0x12	; 18
 3a2:	80 e2       	ldi	r24, 0x20	; 32
 3a4:	0e 94 41 03 	call	0x682	; 0x682 <m_port_set>
			m_port_set(ADDR,TOP1,TOP2);
 3a8:	42 e0       	ldi	r20, 0x02	; 2
 3aa:	62 e1       	ldi	r22, 0x12	; 18
 3ac:	80 e2       	ldi	r24, 0x20	; 32
 3ae:	0e 94 41 03 	call	0x682	; 0x682 <m_port_set>
			m_port_clear(ADDR,UPPERLEFT1,UPPERLEFT2);
 3b2:	41 e0       	ldi	r20, 0x01	; 1
 3b4:	62 e1       	ldi	r22, 0x12	; 18
 3b6:	80 e2       	ldi	r24, 0x20	; 32
 3b8:	0e 94 75 03 	call	0x6ea	; 0x6ea <m_port_clear>
			m_port_set(ADDR,LOWERLEFT1,LOWERLEFT2);
 3bc:	44 e0       	ldi	r20, 0x04	; 4
 3be:	62 e1       	ldi	r22, 0x12	; 18
 3c0:	80 e2       	ldi	r24, 0x20	; 32
 3c2:	0e 94 41 03 	call	0x682	; 0x682 <m_port_set>
			m_port_set(ADDR,BOTTOM1,BOTTOM2);
 3c6:	45 e0       	ldi	r20, 0x05	; 5
 3c8:	62 e1       	ldi	r22, 0x12	; 18
 3ca:	80 e2       	ldi	r24, 0x20	; 32
 3cc:	0e 94 41 03 	call	0x682	; 0x682 <m_port_set>
			m_port_set(ADDR,MIDDLE1,MIDDLE2);
 3d0:	40 e0       	ldi	r20, 0x00	; 0
 3d2:	62 e1       	ldi	r22, 0x12	; 18
 3d4:	80 e2       	ldi	r24, 0x20	; 32
 3d6:	0e 94 41 03 	call	0x682	; 0x682 <m_port_set>
			break;
 3da:	08 95       	ret
		case 3:
			m_port_set(ADDR,LOWERRIGHT1,LOWERRIGHT2);
 3dc:	46 e0       	ldi	r20, 0x06	; 6
 3de:	62 e1       	ldi	r22, 0x12	; 18
 3e0:	80 e2       	ldi	r24, 0x20	; 32
 3e2:	0e 94 41 03 	call	0x682	; 0x682 <m_port_set>
			m_port_set(ADDR,UPPERRIGHT1,UPPERRIGHT2);
 3e6:	43 e0       	ldi	r20, 0x03	; 3
 3e8:	62 e1       	ldi	r22, 0x12	; 18
 3ea:	80 e2       	ldi	r24, 0x20	; 32
 3ec:	0e 94 41 03 	call	0x682	; 0x682 <m_port_set>
			m_port_set(ADDR,TOP1,TOP2);
 3f0:	42 e0       	ldi	r20, 0x02	; 2
 3f2:	62 e1       	ldi	r22, 0x12	; 18
 3f4:	80 e2       	ldi	r24, 0x20	; 32
 3f6:	0e 94 41 03 	call	0x682	; 0x682 <m_port_set>
			m_port_clear(ADDR,UPPERLEFT1,UPPERLEFT2);
 3fa:	41 e0       	ldi	r20, 0x01	; 1
 3fc:	62 e1       	ldi	r22, 0x12	; 18
 3fe:	80 e2       	ldi	r24, 0x20	; 32
 400:	0e 94 75 03 	call	0x6ea	; 0x6ea <m_port_clear>
			m_port_clear(ADDR,LOWERLEFT1,LOWERLEFT2);
 404:	44 e0       	ldi	r20, 0x04	; 4
 406:	62 e1       	ldi	r22, 0x12	; 18
 408:	80 e2       	ldi	r24, 0x20	; 32
 40a:	0e 94 75 03 	call	0x6ea	; 0x6ea <m_port_clear>
			m_port_set(ADDR,BOTTOM1,BOTTOM2);
 40e:	45 e0       	ldi	r20, 0x05	; 5
 410:	62 e1       	ldi	r22, 0x12	; 18
 412:	80 e2       	ldi	r24, 0x20	; 32
 414:	0e 94 41 03 	call	0x682	; 0x682 <m_port_set>
			m_port_set(ADDR,MIDDLE1,MIDDLE2);
 418:	40 e0       	ldi	r20, 0x00	; 0
 41a:	62 e1       	ldi	r22, 0x12	; 18
 41c:	80 e2       	ldi	r24, 0x20	; 32
 41e:	0e 94 41 03 	call	0x682	; 0x682 <m_port_set>
			break;
 422:	08 95       	ret
		case 4:
			m_port_set(ADDR,LOWERRIGHT1,LOWERRIGHT2);
 424:	46 e0       	ldi	r20, 0x06	; 6
 426:	62 e1       	ldi	r22, 0x12	; 18
 428:	80 e2       	ldi	r24, 0x20	; 32
 42a:	0e 94 41 03 	call	0x682	; 0x682 <m_port_set>
			m_port_set(ADDR,UPPERRIGHT1,UPPERRIGHT2);
 42e:	43 e0       	ldi	r20, 0x03	; 3
 430:	62 e1       	ldi	r22, 0x12	; 18
 432:	80 e2       	ldi	r24, 0x20	; 32
 434:	0e 94 41 03 	call	0x682	; 0x682 <m_port_set>
			m_port_clear(ADDR,TOP1,TOP2);
 438:	42 e0       	ldi	r20, 0x02	; 2
 43a:	62 e1       	ldi	r22, 0x12	; 18
 43c:	80 e2       	ldi	r24, 0x20	; 32
 43e:	0e 94 75 03 	call	0x6ea	; 0x6ea <m_port_clear>
			m_port_set(ADDR,UPPERLEFT1,UPPERLEFT2);
 442:	41 e0       	ldi	r20, 0x01	; 1
 444:	62 e1       	ldi	r22, 0x12	; 18
 446:	80 e2       	ldi	r24, 0x20	; 32
 448:	0e 94 41 03 	call	0x682	; 0x682 <m_port_set>
			m_port_clear(ADDR,LOWERLEFT1,LOWERLEFT2);
 44c:	44 e0       	ldi	r20, 0x04	; 4
 44e:	62 e1       	ldi	r22, 0x12	; 18
 450:	80 e2       	ldi	r24, 0x20	; 32
 452:	0e 94 75 03 	call	0x6ea	; 0x6ea <m_port_clear>
			m_port_clear(ADDR,BOTTOM1,BOTTOM2);
 456:	45 e0       	ldi	r20, 0x05	; 5
 458:	62 e1       	ldi	r22, 0x12	; 18
 45a:	80 e2       	ldi	r24, 0x20	; 32
 45c:	0e 94 75 03 	call	0x6ea	; 0x6ea <m_port_clear>
			m_port_set(ADDR,MIDDLE1,MIDDLE2);
 460:	40 e0       	ldi	r20, 0x00	; 0
 462:	62 e1       	ldi	r22, 0x12	; 18
 464:	80 e2       	ldi	r24, 0x20	; 32
 466:	0e 94 41 03 	call	0x682	; 0x682 <m_port_set>
			break;
 46a:	08 95       	ret
		case 5:
			m_port_set(ADDR,LOWERRIGHT1,LOWERRIGHT2);
 46c:	46 e0       	ldi	r20, 0x06	; 6
 46e:	62 e1       	ldi	r22, 0x12	; 18
 470:	80 e2       	ldi	r24, 0x20	; 32
 472:	0e 94 41 03 	call	0x682	; 0x682 <m_port_set>
			m_port_clear(ADDR,UPPERRIGHT1,UPPERRIGHT2);
 476:	43 e0       	ldi	r20, 0x03	; 3
 478:	62 e1       	ldi	r22, 0x12	; 18
 47a:	80 e2       	ldi	r24, 0x20	; 32
 47c:	0e 94 75 03 	call	0x6ea	; 0x6ea <m_port_clear>
			m_port_set(ADDR,TOP1,TOP2);
 480:	42 e0       	ldi	r20, 0x02	; 2
 482:	62 e1       	ldi	r22, 0x12	; 18
 484:	80 e2       	ldi	r24, 0x20	; 32
 486:	0e 94 41 03 	call	0x682	; 0x682 <m_port_set>
			m_port_set(ADDR,UPPERLEFT1,UPPERLEFT2);
 48a:	41 e0       	ldi	r20, 0x01	; 1
 48c:	62 e1       	ldi	r22, 0x12	; 18
 48e:	80 e2       	ldi	r24, 0x20	; 32
 490:	0e 94 41 03 	call	0x682	; 0x682 <m_port_set>
			m_port_clear(ADDR,LOWERLEFT1,LOWERLEFT2);
 494:	44 e0       	ldi	r20, 0x04	; 4
 496:	62 e1       	ldi	r22, 0x12	; 18
 498:	80 e2       	ldi	r24, 0x20	; 32
 49a:	0e 94 75 03 	call	0x6ea	; 0x6ea <m_port_clear>
			m_port_set(ADDR,BOTTOM1,BOTTOM2);
 49e:	45 e0       	ldi	r20, 0x05	; 5
 4a0:	62 e1       	ldi	r22, 0x12	; 18
 4a2:	80 e2       	ldi	r24, 0x20	; 32
 4a4:	0e 94 41 03 	call	0x682	; 0x682 <m_port_set>
			m_port_set(ADDR,MIDDLE1,MIDDLE2);
 4a8:	40 e0       	ldi	r20, 0x00	; 0
 4aa:	62 e1       	ldi	r22, 0x12	; 18
 4ac:	80 e2       	ldi	r24, 0x20	; 32
 4ae:	0e 94 41 03 	call	0x682	; 0x682 <m_port_set>
		break;
 4b2:	08 95       	ret
		case 6:
			m_port_set(ADDR,LOWERRIGHT1,LOWERRIGHT2);
 4b4:	46 e0       	ldi	r20, 0x06	; 6
 4b6:	62 e1       	ldi	r22, 0x12	; 18
 4b8:	80 e2       	ldi	r24, 0x20	; 32
 4ba:	0e 94 41 03 	call	0x682	; 0x682 <m_port_set>
			m_port_clear(ADDR,UPPERRIGHT1,UPPERRIGHT2);
 4be:	43 e0       	ldi	r20, 0x03	; 3
 4c0:	62 e1       	ldi	r22, 0x12	; 18
 4c2:	80 e2       	ldi	r24, 0x20	; 32
 4c4:	0e 94 75 03 	call	0x6ea	; 0x6ea <m_port_clear>
			m_port_set(ADDR,TOP1,TOP2);
 4c8:	42 e0       	ldi	r20, 0x02	; 2
 4ca:	62 e1       	ldi	r22, 0x12	; 18
 4cc:	80 e2       	ldi	r24, 0x20	; 32
 4ce:	0e 94 41 03 	call	0x682	; 0x682 <m_port_set>
			m_port_set(ADDR,UPPERLEFT1,UPPERLEFT2);
 4d2:	41 e0       	ldi	r20, 0x01	; 1
 4d4:	62 e1       	ldi	r22, 0x12	; 18
 4d6:	80 e2       	ldi	r24, 0x20	; 32
 4d8:	0e 94 41 03 	call	0x682	; 0x682 <m_port_set>
			m_port_set(ADDR,LOWERLEFT1,LOWERLEFT2);
 4dc:	44 e0       	ldi	r20, 0x04	; 4
 4de:	62 e1       	ldi	r22, 0x12	; 18
 4e0:	80 e2       	ldi	r24, 0x20	; 32
 4e2:	0e 94 41 03 	call	0x682	; 0x682 <m_port_set>
			m_port_set(ADDR,BOTTOM1,BOTTOM2);
 4e6:	45 e0       	ldi	r20, 0x05	; 5
 4e8:	62 e1       	ldi	r22, 0x12	; 18
 4ea:	80 e2       	ldi	r24, 0x20	; 32
 4ec:	0e 94 41 03 	call	0x682	; 0x682 <m_port_set>
			m_port_set(ADDR,MIDDLE1,MIDDLE2);
 4f0:	40 e0       	ldi	r20, 0x00	; 0
 4f2:	62 e1       	ldi	r22, 0x12	; 18
 4f4:	80 e2       	ldi	r24, 0x20	; 32
 4f6:	0e 94 41 03 	call	0x682	; 0x682 <m_port_set>
			break;
 4fa:	08 95       	ret
		case 7:
			m_port_set(ADDR,LOWERRIGHT1,LOWERRIGHT2);
 4fc:	46 e0       	ldi	r20, 0x06	; 6
 4fe:	62 e1       	ldi	r22, 0x12	; 18
 500:	80 e2       	ldi	r24, 0x20	; 32
 502:	0e 94 41 03 	call	0x682	; 0x682 <m_port_set>
			m_port_set(ADDR,UPPERRIGHT1,UPPERRIGHT2);
 506:	43 e0       	ldi	r20, 0x03	; 3
 508:	62 e1       	ldi	r22, 0x12	; 18
 50a:	80 e2       	ldi	r24, 0x20	; 32
 50c:	0e 94 41 03 	call	0x682	; 0x682 <m_port_set>
			m_port_set(ADDR,TOP1,TOP2);
 510:	42 e0       	ldi	r20, 0x02	; 2
 512:	62 e1       	ldi	r22, 0x12	; 18
 514:	80 e2       	ldi	r24, 0x20	; 32
 516:	0e 94 41 03 	call	0x682	; 0x682 <m_port_set>
			m_port_clear(ADDR,UPPERLEFT1,UPPERLEFT2);
 51a:	41 e0       	ldi	r20, 0x01	; 1
 51c:	62 e1       	ldi	r22, 0x12	; 18
 51e:	80 e2       	ldi	r24, 0x20	; 32
 520:	0e 94 75 03 	call	0x6ea	; 0x6ea <m_port_clear>
			m_port_clear(ADDR,LOWERLEFT1,LOWERLEFT2);
 524:	44 e0       	ldi	r20, 0x04	; 4
 526:	62 e1       	ldi	r22, 0x12	; 18
 528:	80 e2       	ldi	r24, 0x20	; 32
 52a:	0e 94 75 03 	call	0x6ea	; 0x6ea <m_port_clear>
			m_port_clear(ADDR,BOTTOM1,BOTTOM2);
 52e:	45 e0       	ldi	r20, 0x05	; 5
 530:	62 e1       	ldi	r22, 0x12	; 18
 532:	80 e2       	ldi	r24, 0x20	; 32
 534:	0e 94 75 03 	call	0x6ea	; 0x6ea <m_port_clear>
			m_port_clear(ADDR,MIDDLE1,MIDDLE2);
 538:	40 e0       	ldi	r20, 0x00	; 0
 53a:	62 e1       	ldi	r22, 0x12	; 18
 53c:	80 e2       	ldi	r24, 0x20	; 32
 53e:	0e 94 75 03 	call	0x6ea	; 0x6ea <m_port_clear>
			break;
 542:	08 95       	ret
		case 8:
			m_port_set(ADDR,LOWERRIGHT1,LOWERRIGHT2);
 544:	46 e0       	ldi	r20, 0x06	; 6
 546:	62 e1       	ldi	r22, 0x12	; 18
 548:	80 e2       	ldi	r24, 0x20	; 32
 54a:	0e 94 41 03 	call	0x682	; 0x682 <m_port_set>
			m_port_set(ADDR,UPPERRIGHT1,UPPERRIGHT2);
 54e:	43 e0       	ldi	r20, 0x03	; 3
 550:	62 e1       	ldi	r22, 0x12	; 18
 552:	80 e2       	ldi	r24, 0x20	; 32
 554:	0e 94 41 03 	call	0x682	; 0x682 <m_port_set>
			m_port_set(ADDR,TOP1,TOP2);
 558:	42 e0       	ldi	r20, 0x02	; 2
 55a:	62 e1       	ldi	r22, 0x12	; 18
 55c:	80 e2       	ldi	r24, 0x20	; 32
 55e:	0e 94 41 03 	call	0x682	; 0x682 <m_port_set>
			m_port_set(ADDR,UPPERLEFT1,UPPERLEFT2);
 562:	41 e0       	ldi	r20, 0x01	; 1
 564:	62 e1       	ldi	r22, 0x12	; 18
 566:	80 e2       	ldi	r24, 0x20	; 32
 568:	0e 94 41 03 	call	0x682	; 0x682 <m_port_set>
			m_port_set(ADDR,LOWERLEFT1,LOWERLEFT2);
 56c:	44 e0       	ldi	r20, 0x04	; 4
 56e:	62 e1       	ldi	r22, 0x12	; 18
 570:	80 e2       	ldi	r24, 0x20	; 32
 572:	0e 94 41 03 	call	0x682	; 0x682 <m_port_set>
			m_port_set(ADDR,BOTTOM1,BOTTOM2);
 576:	45 e0       	ldi	r20, 0x05	; 5
 578:	62 e1       	ldi	r22, 0x12	; 18
 57a:	80 e2       	ldi	r24, 0x20	; 32
 57c:	0e 94 41 03 	call	0x682	; 0x682 <m_port_set>
			m_port_set(ADDR,MIDDLE1,MIDDLE2);
 580:	40 e0       	ldi	r20, 0x00	; 0
 582:	62 e1       	ldi	r22, 0x12	; 18
 584:	80 e2       	ldi	r24, 0x20	; 32
 586:	0e 94 41 03 	call	0x682	; 0x682 <m_port_set>
			break;
 58a:	08 95       	ret
		case 9:
			m_port_set(ADDR,LOWERRIGHT1,LOWERRIGHT2);
 58c:	46 e0       	ldi	r20, 0x06	; 6
 58e:	62 e1       	ldi	r22, 0x12	; 18
 590:	80 e2       	ldi	r24, 0x20	; 32
 592:	0e 94 41 03 	call	0x682	; 0x682 <m_port_set>
			m_port_set(ADDR,UPPERRIGHT1,UPPERRIGHT2);
 596:	43 e0       	ldi	r20, 0x03	; 3
 598:	62 e1       	ldi	r22, 0x12	; 18
 59a:	80 e2       	ldi	r24, 0x20	; 32
 59c:	0e 94 41 03 	call	0x682	; 0x682 <m_port_set>
			m_port_set(ADDR,TOP1,TOP2);
 5a0:	42 e0       	ldi	r20, 0x02	; 2
 5a2:	62 e1       	ldi	r22, 0x12	; 18
 5a4:	80 e2       	ldi	r24, 0x20	; 32
 5a6:	0e 94 41 03 	call	0x682	; 0x682 <m_port_set>
			m_port_set(ADDR,UPPERLEFT1,UPPERLEFT2);
 5aa:	41 e0       	ldi	r20, 0x01	; 1
 5ac:	62 e1       	ldi	r22, 0x12	; 18
 5ae:	80 e2       	ldi	r24, 0x20	; 32
 5b0:	0e 94 41 03 	call	0x682	; 0x682 <m_port_set>
			m_port_clear(ADDR,LOWERLEFT1,LOWERLEFT2);
 5b4:	44 e0       	ldi	r20, 0x04	; 4
 5b6:	62 e1       	ldi	r22, 0x12	; 18
 5b8:	80 e2       	ldi	r24, 0x20	; 32
 5ba:	0e 94 75 03 	call	0x6ea	; 0x6ea <m_port_clear>
			m_port_set(ADDR,BOTTOM1,BOTTOM2);
 5be:	45 e0       	ldi	r20, 0x05	; 5
 5c0:	62 e1       	ldi	r22, 0x12	; 18
 5c2:	80 e2       	ldi	r24, 0x20	; 32
 5c4:	0e 94 41 03 	call	0x682	; 0x682 <m_port_set>
			m_port_set(ADDR,MIDDLE1,MIDDLE2);
 5c8:	40 e0       	ldi	r20, 0x00	; 0
 5ca:	62 e1       	ldi	r22, 0x12	; 18
 5cc:	80 e2       	ldi	r24, 0x20	; 32
 5ce:	0e 94 41 03 	call	0x682	; 0x682 <m_port_set>
			break;
 5d2:	08 95       	ret
		case 0:
			m_port_set(ADDR,LOWERRIGHT1,LOWERRIGHT2);
 5d4:	46 e0       	ldi	r20, 0x06	; 6
 5d6:	62 e1       	ldi	r22, 0x12	; 18
 5d8:	80 e2       	ldi	r24, 0x20	; 32
 5da:	0e 94 41 03 	call	0x682	; 0x682 <m_port_set>
			m_port_set(ADDR,UPPERRIGHT1,UPPERRIGHT2);
 5de:	43 e0       	ldi	r20, 0x03	; 3
 5e0:	62 e1       	ldi	r22, 0x12	; 18
 5e2:	80 e2       	ldi	r24, 0x20	; 32
 5e4:	0e 94 41 03 	call	0x682	; 0x682 <m_port_set>
			m_port_set(ADDR,TOP1,TOP2);
 5e8:	42 e0       	ldi	r20, 0x02	; 2
 5ea:	62 e1       	ldi	r22, 0x12	; 18
 5ec:	80 e2       	ldi	r24, 0x20	; 32
 5ee:	0e 94 41 03 	call	0x682	; 0x682 <m_port_set>
			m_port_set(ADDR,UPPERLEFT1,UPPERLEFT2);
 5f2:	41 e0       	ldi	r20, 0x01	; 1
 5f4:	62 e1       	ldi	r22, 0x12	; 18
 5f6:	80 e2       	ldi	r24, 0x20	; 32
 5f8:	0e 94 41 03 	call	0x682	; 0x682 <m_port_set>
			m_port_set(ADDR,LOWERLEFT1,LOWERLEFT2);
 5fc:	44 e0       	ldi	r20, 0x04	; 4
 5fe:	62 e1       	ldi	r22, 0x12	; 18
 600:	80 e2       	ldi	r24, 0x20	; 32
 602:	0e 94 41 03 	call	0x682	; 0x682 <m_port_set>
			m_port_set(ADDR,BOTTOM1,BOTTOM2);
 606:	45 e0       	ldi	r20, 0x05	; 5
 608:	62 e1       	ldi	r22, 0x12	; 18
 60a:	80 e2       	ldi	r24, 0x20	; 32
 60c:	0e 94 41 03 	call	0x682	; 0x682 <m_port_set>
			m_port_clear(ADDR,MIDDLE1,MIDDLE2);
 610:	40 e0       	ldi	r20, 0x00	; 0
 612:	62 e1       	ldi	r22, 0x12	; 18
 614:	80 e2       	ldi	r24, 0x20	; 32
 616:	0e 94 75 03 	call	0x6ea	; 0x6ea <m_port_clear>
 61a:	08 95       	ret

0000061c <m_num_init>:
			break;
	}
}

void m_num_init() {
	m_bus_init();
 61c:	0e 94 cf 00 	call	0x19e	; 0x19e <m_bus_init>
	m_port_init(ADDR);
 620:	80 e2       	ldi	r24, 0x20	; 32
 622:	0e 94 37 03 	call	0x66e	; 0x66e <m_port_init>
	m_port_set(ADDR,DDRG,0);
 626:	40 e0       	ldi	r20, 0x00	; 0
 628:	60 e0       	ldi	r22, 0x00	; 0
 62a:	80 e2       	ldi	r24, 0x20	; 32
 62c:	0e 94 41 03 	call	0x682	; 0x682 <m_port_set>
	m_port_set(ADDR,DDRG,1);
 630:	41 e0       	ldi	r20, 0x01	; 1
 632:	60 e0       	ldi	r22, 0x00	; 0
 634:	80 e2       	ldi	r24, 0x20	; 32
 636:	0e 94 41 03 	call	0x682	; 0x682 <m_port_set>
	m_port_set(ADDR,DDRG,2);
 63a:	42 e0       	ldi	r20, 0x02	; 2
 63c:	60 e0       	ldi	r22, 0x00	; 0
 63e:	80 e2       	ldi	r24, 0x20	; 32
 640:	0e 94 41 03 	call	0x682	; 0x682 <m_port_set>
	m_port_set(ADDR,DDRG,3);
 644:	43 e0       	ldi	r20, 0x03	; 3
 646:	60 e0       	ldi	r22, 0x00	; 0
 648:	80 e2       	ldi	r24, 0x20	; 32
 64a:	0e 94 41 03 	call	0x682	; 0x682 <m_port_set>
	m_port_set(ADDR,DDRG,4);
 64e:	44 e0       	ldi	r20, 0x04	; 4
 650:	60 e0       	ldi	r22, 0x00	; 0
 652:	80 e2       	ldi	r24, 0x20	; 32
 654:	0e 94 41 03 	call	0x682	; 0x682 <m_port_set>
	m_port_set(ADDR,DDRG,5);
 658:	45 e0       	ldi	r20, 0x05	; 5
 65a:	60 e0       	ldi	r22, 0x00	; 0
 65c:	80 e2       	ldi	r24, 0x20	; 32
 65e:	0e 94 41 03 	call	0x682	; 0x682 <m_port_set>
	m_port_set(ADDR,DDRG,6);
 662:	46 e0       	ldi	r20, 0x06	; 6
 664:	60 e0       	ldi	r22, 0x00	; 0
 666:	80 e2       	ldi	r24, 0x20	; 32
 668:	0e 94 41 03 	call	0x682	; 0x682 <m_port_set>
 66c:	08 95       	ret

0000066e <m_port_init>:

//unsigned char m_read_register(unsigned char addr, unsigned char reg);
//unsigned char m_write_register(unsigned char addr, unsigned char reg, unsigned char value);

unsigned char m_port_init(unsigned char address){
	if(m_write_register(address, 0x05, 0x38))
 66e:	48 e3       	ldi	r20, 0x38	; 56
 670:	65 e0       	ldi	r22, 0x05	; 5
 672:	0e 94 3d 01 	call	0x27a	; 0x27a <m_write_register>
 676:	91 e0       	ldi	r25, 0x01	; 1
 678:	81 11       	cpse	r24, r1
 67a:	01 c0       	rjmp	.+2      	; 0x67e <m_port_init+0x10>
 67c:	90 e0       	ldi	r25, 0x00	; 0
        return 1;
    else
        return 0;
}
 67e:	89 2f       	mov	r24, r25
 680:	08 95       	ret

00000682 <m_port_set>:

unsigned char m_port_set(unsigned char address, unsigned char reg, unsigned char pin){
 682:	1f 93       	push	r17
 684:	cf 93       	push	r28
 686:	df 93       	push	r29
 688:	d8 2f       	mov	r29, r24
 68a:	c6 2f       	mov	r28, r22
 68c:	14 2f       	mov	r17, r20
	unsigned char value = m_read_register(address, reg);
 68e:	0e 94 5c 01 	call	0x2b8	; 0x2b8 <m_read_register>
	if(reg == DDRH || reg == DDRG){
 692:	c2 30       	cpi	r28, 0x02	; 2
 694:	88 f4       	brcc	.+34     	; 0x6b8 <m_port_set+0x36>
        m_write_register(address, reg, value &= ~(1 << pin));
 696:	a1 e0       	ldi	r26, 0x01	; 1
 698:	b0 e0       	ldi	r27, 0x00	; 0
 69a:	fd 01       	movw	r30, r26
 69c:	02 c0       	rjmp	.+4      	; 0x6a2 <m_port_set+0x20>
 69e:	ee 0f       	add	r30, r30
 6a0:	ff 1f       	adc	r31, r31
 6a2:	1a 95       	dec	r17
 6a4:	e2 f7       	brpl	.-8      	; 0x69e <m_port_set+0x1c>
 6a6:	e0 95       	com	r30
 6a8:	48 2f       	mov	r20, r24
 6aa:	4e 23       	and	r20, r30
 6ac:	6c 2f       	mov	r22, r28
 6ae:	8d 2f       	mov	r24, r29
 6b0:	0e 94 3d 01 	call	0x27a	; 0x27a <m_write_register>
        return 1;
 6b4:	81 e0       	ldi	r24, 0x01	; 1
 6b6:	15 c0       	rjmp	.+42     	; 0x6e2 <m_port_set+0x60>
	}
	else if(reg == PORTH || reg == PORTG){
 6b8:	9c 2f       	mov	r25, r28
 6ba:	92 51       	subi	r25, 0x12	; 18
 6bc:	92 30       	cpi	r25, 0x02	; 2
 6be:	80 f4       	brcc	.+32     	; 0x6e0 <m_port_set+0x5e>
        m_write_register(address, reg, value |= 1 << pin);
 6c0:	e1 e0       	ldi	r30, 0x01	; 1
 6c2:	f0 e0       	ldi	r31, 0x00	; 0
 6c4:	9f 01       	movw	r18, r30
 6c6:	02 c0       	rjmp	.+4      	; 0x6cc <m_port_set+0x4a>
 6c8:	22 0f       	add	r18, r18
 6ca:	33 1f       	adc	r19, r19
 6cc:	1a 95       	dec	r17
 6ce:	e2 f7       	brpl	.-8      	; 0x6c8 <m_port_set+0x46>
 6d0:	48 2f       	mov	r20, r24
 6d2:	42 2b       	or	r20, r18
 6d4:	6c 2f       	mov	r22, r28
 6d6:	8d 2f       	mov	r24, r29
 6d8:	0e 94 3d 01 	call	0x27a	; 0x27a <m_write_register>
        return 1;
 6dc:	81 e0       	ldi	r24, 0x01	; 1
 6de:	01 c0       	rjmp	.+2      	; 0x6e2 <m_port_set+0x60>
    }
    else return 0;
 6e0:	80 e0       	ldi	r24, 0x00	; 0
}
 6e2:	df 91       	pop	r29
 6e4:	cf 91       	pop	r28
 6e6:	1f 91       	pop	r17
 6e8:	08 95       	ret

000006ea <m_port_clear>:

unsigned char m_port_clear(unsigned char address, unsigned char reg, unsigned char pin){
 6ea:	1f 93       	push	r17
 6ec:	cf 93       	push	r28
 6ee:	df 93       	push	r29
 6f0:	d8 2f       	mov	r29, r24
 6f2:	c6 2f       	mov	r28, r22
 6f4:	14 2f       	mov	r17, r20
	unsigned char value = m_read_register(address, reg);
 6f6:	0e 94 5c 01 	call	0x2b8	; 0x2b8 <m_read_register>
	if(reg == PORTH || reg == PORTG){
 6fa:	9c 2f       	mov	r25, r28
 6fc:	92 51       	subi	r25, 0x12	; 18
 6fe:	92 30       	cpi	r25, 0x02	; 2
 700:	88 f4       	brcc	.+34     	; 0x724 <m_port_clear+0x3a>
        m_write_register(address, reg, value &= ~(1 << pin));
 702:	a1 e0       	ldi	r26, 0x01	; 1
 704:	b0 e0       	ldi	r27, 0x00	; 0
 706:	fd 01       	movw	r30, r26
 708:	02 c0       	rjmp	.+4      	; 0x70e <m_port_clear+0x24>
 70a:	ee 0f       	add	r30, r30
 70c:	ff 1f       	adc	r31, r31
 70e:	1a 95       	dec	r17
 710:	e2 f7       	brpl	.-8      	; 0x70a <m_port_clear+0x20>
 712:	e0 95       	com	r30
 714:	48 2f       	mov	r20, r24
 716:	4e 23       	and	r20, r30
 718:	6c 2f       	mov	r22, r28
 71a:	8d 2f       	mov	r24, r29
 71c:	0e 94 3d 01 	call	0x27a	; 0x27a <m_write_register>
        return 1;
 720:	81 e0       	ldi	r24, 0x01	; 1
 722:	13 c0       	rjmp	.+38     	; 0x74a <m_port_clear+0x60>
	}
	else if(reg == DDRH || reg == DDRG){
 724:	c2 30       	cpi	r28, 0x02	; 2
 726:	80 f4       	brcc	.+32     	; 0x748 <m_port_clear+0x5e>
        m_write_register(address, reg, value |= 1 << pin);
 728:	e1 e0       	ldi	r30, 0x01	; 1
 72a:	f0 e0       	ldi	r31, 0x00	; 0
 72c:	9f 01       	movw	r18, r30
 72e:	02 c0       	rjmp	.+4      	; 0x734 <m_port_clear+0x4a>
 730:	22 0f       	add	r18, r18
 732:	33 1f       	adc	r19, r19
 734:	1a 95       	dec	r17
 736:	e2 f7       	brpl	.-8      	; 0x730 <m_port_clear+0x46>
 738:	48 2f       	mov	r20, r24
 73a:	42 2b       	or	r20, r18
 73c:	6c 2f       	mov	r22, r28
 73e:	8d 2f       	mov	r24, r29
 740:	0e 94 3d 01 	call	0x27a	; 0x27a <m_write_register>
        return 1;
 744:	81 e0       	ldi	r24, 0x01	; 1
 746:	01 c0       	rjmp	.+2      	; 0x74a <m_port_clear+0x60>
    }
    else return 0;
 748:	80 e0       	ldi	r24, 0x00	; 0
}
 74a:	df 91       	pop	r29
 74c:	cf 91       	pop	r28
 74e:	1f 91       	pop	r17
 750:	08 95       	ret

00000752 <m_usb_init>:
 **************************************************************************/

// initialize USB serial
void m_usb_init(void)
{
	HW_CONFIG();
 752:	81 e0       	ldi	r24, 0x01	; 1
 754:	80 93 d7 00 	sts	0x00D7, r24
        USB_FREEZE();				// enable USB
 758:	80 ea       	ldi	r24, 0xA0	; 160
 75a:	80 93 d8 00 	sts	0x00D8, r24
        PLL_CONFIG();				// config PLL, 16 MHz xtal
 75e:	82 e1       	ldi	r24, 0x12	; 18
 760:	89 bd       	out	0x29, r24	; 41
        while (!(PLLCSR & (1<<PLOCK))) ;	// wait for PLL lock
 762:	09 b4       	in	r0, 0x29	; 41
 764:	00 fe       	sbrs	r0, 0
 766:	fd cf       	rjmp	.-6      	; 0x762 <m_usb_init+0x10>
        USB_CONFIG();				// start USB clock
 768:	80 e9       	ldi	r24, 0x90	; 144
 76a:	80 93 d8 00 	sts	0x00D8, r24
        UDCON = 0;				// enable attach resistor
 76e:	10 92 e0 00 	sts	0x00E0, r1
	usb_configuration = 0;
 772:	10 92 09 01 	sts	0x0109, r1
	cdc_line_rtsdtr = 0;
 776:	10 92 0a 01 	sts	0x010A, r1
        UDIEN = (1<<EORSTE)|(1<<SOFE);
 77a:	8c e0       	ldi	r24, 0x0C	; 12
 77c:	80 93 e2 00 	sts	0x00E2, r24
	sei();
 780:	78 94       	sei
 782:	08 95       	ret

00000784 <__vector_10>:

// USB Device Interrupt - handle all device-level events
// the transmit buffer flushing is triggered by the start of frame
//
ISR(USB_GEN_vect)
{
 784:	1f 92       	push	r1
 786:	0f 92       	push	r0
 788:	0f b6       	in	r0, 0x3f	; 63
 78a:	0f 92       	push	r0
 78c:	11 24       	eor	r1, r1
 78e:	8f 93       	push	r24
 790:	9f 93       	push	r25
 792:	ef 93       	push	r30
 794:	ff 93       	push	r31
	uint8_t intbits, t;

        intbits = UDINT;
 796:	e1 ee       	ldi	r30, 0xE1	; 225
 798:	f0 e0       	ldi	r31, 0x00	; 0
 79a:	80 81       	ld	r24, Z
        UDINT = 0;
 79c:	10 82       	st	Z, r1
        if (intbits & (1<<EORSTI)) {
 79e:	83 ff       	sbrs	r24, 3
 7a0:	11 c0       	rjmp	.+34     	; 0x7c4 <__vector_10+0x40>
		UENUM = 0;
 7a2:	10 92 e9 00 	sts	0x00E9, r1
		UECONX = 1;
 7a6:	91 e0       	ldi	r25, 0x01	; 1
 7a8:	90 93 eb 00 	sts	0x00EB, r25
		UECFG0X = EP_TYPE_CONTROL;
 7ac:	10 92 ec 00 	sts	0x00EC, r1
		UECFG1X = EP_SIZE(ENDPOINT0_SIZE) | EP_SINGLE_BUFFER;
 7b0:	92 e1       	ldi	r25, 0x12	; 18
 7b2:	90 93 ed 00 	sts	0x00ED, r25
		UEIENX = (1<<RXSTPE);
 7b6:	98 e0       	ldi	r25, 0x08	; 8
 7b8:	90 93 f0 00 	sts	0x00F0, r25
		usb_configuration = 0;
 7bc:	10 92 09 01 	sts	0x0109, r1
		cdc_line_rtsdtr = 0;
 7c0:	10 92 0a 01 	sts	0x010A, r1
        }
	if (intbits & (1<<SOFI)) {
 7c4:	82 ff       	sbrs	r24, 2
 7c6:	13 c0       	rjmp	.+38     	; 0x7ee <__vector_10+0x6a>
		if (usb_configuration) {
 7c8:	80 91 09 01 	lds	r24, 0x0109
 7cc:	88 23       	and	r24, r24
 7ce:	79 f0       	breq	.+30     	; 0x7ee <__vector_10+0x6a>
			t = transmit_flush_timer;
 7d0:	80 91 08 01 	lds	r24, 0x0108
			if (t) {
 7d4:	88 23       	and	r24, r24
 7d6:	59 f0       	breq	.+22     	; 0x7ee <__vector_10+0x6a>
				transmit_flush_timer = --t;
 7d8:	81 50       	subi	r24, 0x01	; 1
 7da:	80 93 08 01 	sts	0x0108, r24
				if (!t) {
 7de:	81 11       	cpse	r24, r1
 7e0:	06 c0       	rjmp	.+12     	; 0x7ee <__vector_10+0x6a>
					UENUM = CDC_TX_ENDPOINT;
 7e2:	84 e0       	ldi	r24, 0x04	; 4
 7e4:	80 93 e9 00 	sts	0x00E9, r24
					UEINTX = 0x3A;
 7e8:	8a e3       	ldi	r24, 0x3A	; 58
 7ea:	80 93 e8 00 	sts	0x00E8, r24
				}
			}
		}
	}
}
 7ee:	ff 91       	pop	r31
 7f0:	ef 91       	pop	r30
 7f2:	9f 91       	pop	r25
 7f4:	8f 91       	pop	r24
 7f6:	0f 90       	pop	r0
 7f8:	0f be       	out	0x3f, r0	; 63
 7fa:	0f 90       	pop	r0
 7fc:	1f 90       	pop	r1
 7fe:	18 95       	reti

00000800 <__vector_11>:
// USB Endpoint Interrupt - endpoint 0 is handled here.  The
// other endpoints are manipulated by the user-callable
// functions, and the start-of-frame interrupt.
//
ISR(USB_COM_vect)
{
 800:	1f 92       	push	r1
 802:	0f 92       	push	r0
 804:	0f b6       	in	r0, 0x3f	; 63
 806:	0f 92       	push	r0
 808:	11 24       	eor	r1, r1
 80a:	0f 93       	push	r16
 80c:	1f 93       	push	r17
 80e:	2f 93       	push	r18
 810:	3f 93       	push	r19
 812:	4f 93       	push	r20
 814:	5f 93       	push	r21
 816:	6f 93       	push	r22
 818:	7f 93       	push	r23
 81a:	8f 93       	push	r24
 81c:	9f 93       	push	r25
 81e:	af 93       	push	r26
 820:	bf 93       	push	r27
 822:	cf 93       	push	r28
 824:	df 93       	push	r29
 826:	ef 93       	push	r30
 828:	ff 93       	push	r31
	uint16_t wLength;
	uint16_t desc_val;
	const uint8_t *desc_addr;
	uint8_t	desc_length;

        UENUM = 0;
 82a:	10 92 e9 00 	sts	0x00E9, r1
        intbits = UEINTX;
 82e:	80 91 e8 00 	lds	r24, 0x00E8
        if (intbits & (1<<RXSTPI)) {
 832:	83 ff       	sbrs	r24, 3
 834:	51 c1       	rjmp	.+674    	; 0xad8 <__vector_11+0x2d8>
                bmRequestType = UEDATX;
 836:	e1 ef       	ldi	r30, 0xF1	; 241
 838:	f0 e0       	ldi	r31, 0x00	; 0
 83a:	70 81       	ld	r23, Z
                bRequest = UEDATX;
 83c:	40 81       	ld	r20, Z
                wValue = UEDATX;
 83e:	20 81       	ld	r18, Z
                wValue |= (UEDATX << 8);
 840:	30 81       	ld	r19, Z
 842:	93 2f       	mov	r25, r19
 844:	80 e0       	ldi	r24, 0x00	; 0
 846:	dc 01       	movw	r26, r24
 848:	a2 2b       	or	r26, r18
 84a:	9d 01       	movw	r18, r26
                wIndex = UEDATX;
 84c:	50 81       	ld	r21, Z
                wIndex |= (UEDATX << 8);
 84e:	60 81       	ld	r22, Z
 850:	96 2f       	mov	r25, r22
 852:	80 e0       	ldi	r24, 0x00	; 0
 854:	85 2b       	or	r24, r21
                wLength = UEDATX;
 856:	a0 81       	ld	r26, Z
                wLength |= (UEDATX << 8);
 858:	b0 81       	ld	r27, Z
                UEINTX = ~((1<<RXSTPI) | (1<<RXOUTI) | (1<<TXINI));
 85a:	52 ef       	ldi	r21, 0xF2	; 242
 85c:	50 93 e8 00 	sts	0x00E8, r21
                if (bRequest == GET_DESCRIPTOR) {
 860:	46 30       	cpi	r20, 0x06	; 6
 862:	09 f0       	breq	.+2      	; 0x866 <__vector_11+0x66>
 864:	5c c0       	rjmp	.+184    	; 0x91e <__vector_11+0x11e>
 866:	04 c0       	rjmp	.+8      	; 0x870 <__vector_11+0x70>
			list = (const uint8_t *)descriptor_list;
			for (i=0; ; i++) {
				if (i >= NUM_DESC_LIST) {
					UECONX = (1<<STALLRQ)|(1<<EPEN);  //stall
 868:	81 e2       	ldi	r24, 0x21	; 33
 86a:	80 93 eb 00 	sts	0x00EB, r24
					return;
 86e:	3b c1       	rjmp	.+630    	; 0xae6 <__vector_11+0x2e6>
                wIndex = UEDATX;
                wIndex |= (UEDATX << 8);
                wLength = UEDATX;
                wLength |= (UEDATX << 8);
                UEINTX = ~((1<<RXSTPI) | (1<<RXOUTI) | (1<<TXINI));
                if (bRequest == GET_DESCRIPTOR) {
 870:	c6 e0       	ldi	r28, 0x06	; 6
 872:	4c ea       	ldi	r20, 0xAC	; 172
 874:	50 e0       	ldi	r21, 0x00	; 0
			for (i=0; ; i++) {
				if (i >= NUM_DESC_LIST) {
					UECONX = (1<<STALLRQ)|(1<<EPEN);  //stall
					return;
				}
				desc_val = pgm_read_word(list);
 876:	fa 01       	movw	r30, r20
 878:	65 91       	lpm	r22, Z+
 87a:	74 91       	lpm	r23, Z
				if (desc_val != wValue) {
 87c:	26 17       	cp	r18, r22
 87e:	37 07       	cpc	r19, r23
 880:	19 f0       	breq	.+6      	; 0x888 <__vector_11+0x88>
					list += sizeof(struct descriptor_list_struct);
 882:	49 5f       	subi	r20, 0xF9	; 249
 884:	5f 4f       	sbci	r21, 0xFF	; 255
					continue;
 886:	20 c0       	rjmp	.+64     	; 0x8c8 <__vector_11+0xc8>
				}
				list += 2;
 888:	fa 01       	movw	r30, r20
 88a:	32 96       	adiw	r30, 0x02	; 2
				desc_val = pgm_read_word(list);
 88c:	65 91       	lpm	r22, Z+
 88e:	74 91       	lpm	r23, Z
				if (desc_val != wIndex) {
 890:	86 17       	cp	r24, r22
 892:	97 07       	cpc	r25, r23
 894:	19 f0       	breq	.+6      	; 0x89c <__vector_11+0x9c>
					list += sizeof(struct descriptor_list_struct)-2;
 896:	49 5f       	subi	r20, 0xF9	; 249
 898:	5f 4f       	sbci	r21, 0xFF	; 255
					continue;
 89a:	16 c0       	rjmp	.+44     	; 0x8c8 <__vector_11+0xc8>
				}
				list += 2;
 89c:	fa 01       	movw	r30, r20
 89e:	34 96       	adiw	r30, 0x04	; 4
				desc_addr = (const uint8_t *)pgm_read_word(list);
 8a0:	85 91       	lpm	r24, Z+
 8a2:	94 91       	lpm	r25, Z
 8a4:	28 2f       	mov	r18, r24
 8a6:	39 2f       	mov	r19, r25
				list += 2;
 8a8:	fa 01       	movw	r30, r20
 8aa:	36 96       	adiw	r30, 0x06	; 6
				desc_length = pgm_read_byte(list);
 8ac:	44 91       	lpm	r20, Z
                wValue = UEDATX;
                wValue |= (UEDATX << 8);
                wIndex = UEDATX;
                wIndex |= (UEDATX << 8);
                wLength = UEDATX;
                wLength |= (UEDATX << 8);
 8ae:	9b 2f       	mov	r25, r27
 8b0:	80 e0       	ldi	r24, 0x00	; 0
 8b2:	8a 2b       	or	r24, r26
				desc_addr = (const uint8_t *)pgm_read_word(list);
				list += 2;
				desc_length = pgm_read_byte(list);
				break;
			}
			len = (wLength < 256) ? wLength : 255;
 8b4:	8f 3f       	cpi	r24, 0xFF	; 255
 8b6:	91 05       	cpc	r25, r1
 8b8:	19 f0       	breq	.+6      	; 0x8c0 <__vector_11+0xc0>
 8ba:	10 f0       	brcs	.+4      	; 0x8c0 <__vector_11+0xc0>
 8bc:	8f ef       	ldi	r24, 0xFF	; 255
 8be:	90 e0       	ldi	r25, 0x00	; 0
 8c0:	84 17       	cp	r24, r20
 8c2:	28 f4       	brcc	.+10     	; 0x8ce <__vector_11+0xce>
 8c4:	48 2f       	mov	r20, r24
 8c6:	03 c0       	rjmp	.+6      	; 0x8ce <__vector_11+0xce>
 8c8:	c1 50       	subi	r28, 0x01	; 1
                wLength |= (UEDATX << 8);
                UEINTX = ~((1<<RXSTPI) | (1<<RXOUTI) | (1<<TXINI));
                if (bRequest == GET_DESCRIPTOR) {
			list = (const uint8_t *)descriptor_list;
			for (i=0; ; i++) {
				if (i >= NUM_DESC_LIST) {
 8ca:	a9 f6       	brne	.-86     	; 0x876 <__vector_11+0x76>
 8cc:	cd cf       	rjmp	.-102    	; 0x868 <__vector_11+0x68>
			len = (wLength < 256) ? wLength : 255;
			if (len > desc_length) len = desc_length;
			do {
				// wait for host ready for IN packet
				do {
					i = UEINTX;
 8ce:	c8 ee       	ldi	r28, 0xE8	; 232
 8d0:	d0 e0       	ldi	r29, 0x00	; 0
{
	while (!(UEINTX & (1<<TXINI))) ;
}
static inline void usb_send_in(void)
{
	UEINTX = ~(1<<TXINI);
 8d2:	7e ef       	ldi	r23, 0xFE	; 254
				} while (!(i & ((1<<TXINI)|(1<<RXOUTI))));
				if (i & (1<<RXOUTI)) return;	// abort
				// send IN packet
				n = len < ENDPOINT0_SIZE ? len : ENDPOINT0_SIZE;
				for (i = n; i; i--) {
					UEDATX = pgm_read_byte(desc_addr++);
 8d4:	a1 ef       	ldi	r26, 0xF1	; 241
 8d6:	b0 e0       	ldi	r27, 0x00	; 0
				do {
					i = UEINTX;
				} while (!(i & ((1<<TXINI)|(1<<RXOUTI))));
				if (i & (1<<RXOUTI)) return;	// abort
				// send IN packet
				n = len < ENDPOINT0_SIZE ? len : ENDPOINT0_SIZE;
 8d8:	10 e1       	ldi	r17, 0x10	; 16
			len = (wLength < 256) ? wLength : 255;
			if (len > desc_length) len = desc_length;
			do {
				// wait for host ready for IN packet
				do {
					i = UEINTX;
 8da:	88 81       	ld	r24, Y
				} while (!(i & ((1<<TXINI)|(1<<RXOUTI))));
 8dc:	98 2f       	mov	r25, r24
 8de:	95 70       	andi	r25, 0x05	; 5
 8e0:	e1 f3       	breq	.-8      	; 0x8da <__vector_11+0xda>
				if (i & (1<<RXOUTI)) return;	// abort
 8e2:	82 fd       	sbrc	r24, 2
 8e4:	00 c1       	rjmp	.+512    	; 0xae6 <__vector_11+0x2e6>
				// send IN packet
				n = len < ENDPOINT0_SIZE ? len : ENDPOINT0_SIZE;
 8e6:	64 2f       	mov	r22, r20
 8e8:	41 31       	cpi	r20, 0x11	; 17
 8ea:	08 f0       	brcs	.+2      	; 0x8ee <__vector_11+0xee>
 8ec:	61 2f       	mov	r22, r17
				for (i = n; i; i--) {
 8ee:	66 23       	and	r22, r22
 8f0:	09 f4       	brne	.+2      	; 0x8f4 <__vector_11+0xf4>
 8f2:	f6 c0       	rjmp	.+492    	; 0xae0 <__vector_11+0x2e0>
 8f4:	c9 01       	movw	r24, r18
 8f6:	56 2f       	mov	r21, r22
					UEDATX = pgm_read_byte(desc_addr++);
 8f8:	fc 01       	movw	r30, r24
 8fa:	01 96       	adiw	r24, 0x01	; 1
 8fc:	e4 91       	lpm	r30, Z
 8fe:	ec 93       	st	X, r30
					i = UEINTX;
				} while (!(i & ((1<<TXINI)|(1<<RXOUTI))));
				if (i & (1<<RXOUTI)) return;	// abort
				// send IN packet
				n = len < ENDPOINT0_SIZE ? len : ENDPOINT0_SIZE;
				for (i = n; i; i--) {
 900:	51 50       	subi	r21, 0x01	; 1
 902:	d1 f7       	brne	.-12     	; 0x8f8 <__vector_11+0xf8>

// USB Endpoint Interrupt - endpoint 0 is handled here.  The
// other endpoints are manipulated by the user-callable
// functions, and the start-of-frame interrupt.
//
ISR(USB_COM_vect)
 904:	86 2f       	mov	r24, r22
 906:	81 50       	subi	r24, 0x01	; 1
 908:	90 e0       	ldi	r25, 0x00	; 0
 90a:	01 96       	adiw	r24, 0x01	; 1
 90c:	28 0f       	add	r18, r24
 90e:	39 1f       	adc	r19, r25
				// send IN packet
				n = len < ENDPOINT0_SIZE ? len : ENDPOINT0_SIZE;
				for (i = n; i; i--) {
					UEDATX = pgm_read_byte(desc_addr++);
				}
				len -= n;
 910:	46 1b       	sub	r20, r22
{
	while (!(UEINTX & (1<<TXINI))) ;
}
static inline void usb_send_in(void)
{
	UEINTX = ~(1<<TXINI);
 912:	78 83       	st	Y, r23
				for (i = n; i; i--) {
					UEDATX = pgm_read_byte(desc_addr++);
				}
				len -= n;
				usb_send_in();
			} while (len || n == ENDPOINT0_SIZE);
 914:	41 11       	cpse	r20, r1
 916:	e1 cf       	rjmp	.-62     	; 0x8da <__vector_11+0xda>
 918:	60 31       	cpi	r22, 0x10	; 16
 91a:	f9 f2       	breq	.-66     	; 0x8da <__vector_11+0xda>
 91c:	e4 c0       	rjmp	.+456    	; 0xae6 <__vector_11+0x2e6>
			return;
                }
		if (bRequest == SET_ADDRESS) {
 91e:	45 30       	cpi	r20, 0x05	; 5
 920:	61 f4       	brne	.+24     	; 0x93a <__vector_11+0x13a>
{
	while (!(UEINTX & (1<<TXINI))) ;
}
static inline void usb_send_in(void)
{
	UEINTX = ~(1<<TXINI);
 922:	8e ef       	ldi	r24, 0xFE	; 254
 924:	80 93 e8 00 	sts	0x00E8, r24


// Misc functions to wait for ready and send/receive packets
static inline void usb_wait_in_ready(void)
{
	while (!(UEINTX & (1<<TXINI))) ;
 928:	e8 ee       	ldi	r30, 0xE8	; 232
 92a:	f0 e0       	ldi	r31, 0x00	; 0
 92c:	80 81       	ld	r24, Z
 92e:	80 ff       	sbrs	r24, 0
 930:	fd cf       	rjmp	.-6      	; 0x92c <__vector_11+0x12c>
			return;
                }
		if (bRequest == SET_ADDRESS) {
			usb_send_in();
			usb_wait_in_ready();
			UDADDR = wValue | (1<<ADDEN);
 932:	20 68       	ori	r18, 0x80	; 128
 934:	20 93 e3 00 	sts	0x00E3, r18
			return;
 938:	d6 c0       	rjmp	.+428    	; 0xae6 <__vector_11+0x2e6>
		}
		if (bRequest == SET_CONFIGURATION && bmRequestType == 0) {
 93a:	49 30       	cpi	r20, 0x09	; 9
 93c:	a1 f5       	brne	.+104    	; 0x9a6 <__vector_11+0x1a6>
 93e:	71 11       	cpse	r23, r1
 940:	5b c0       	rjmp	.+182    	; 0x9f8 <__vector_11+0x1f8>
			usb_configuration = wValue;
 942:	20 93 09 01 	sts	0x0109, r18
			cdc_line_rtsdtr = 0;
 946:	10 92 0a 01 	sts	0x010A, r1
			transmit_flush_timer = 0;
 94a:	10 92 08 01 	sts	0x0108, r1
{
	while (!(UEINTX & (1<<TXINI))) ;
}
static inline void usb_send_in(void)
{
	UEINTX = ~(1<<TXINI);
 94e:	8e ef       	ldi	r24, 0xFE	; 254
 950:	80 93 e8 00 	sts	0x00E8, r24
			usb_configuration = wValue;
			cdc_line_rtsdtr = 0;
			transmit_flush_timer = 0;
			usb_send_in();
			cfg = endpoint_config_table;
			for (i=1; i<5; i++) {
 954:	11 e0       	ldi	r17, 0x01	; 1
		if (bRequest == SET_CONFIGURATION && bmRequestType == 0) {
			usb_configuration = wValue;
			cdc_line_rtsdtr = 0;
			transmit_flush_timer = 0;
			usb_send_in();
			cfg = endpoint_config_table;
 956:	86 ed       	ldi	r24, 0xD6	; 214
 958:	90 e0       	ldi	r25, 0x00	; 0
			for (i=1; i<5; i++) {
				UENUM = i;
 95a:	c9 ee       	ldi	r28, 0xE9	; 233
 95c:	d0 e0       	ldi	r29, 0x00	; 0
				en = pgm_read_byte(cfg++);
				UECONX = en;
 95e:	ab ee       	ldi	r26, 0xEB	; 235
 960:	b0 e0       	ldi	r27, 0x00	; 0
				if (en) {
					UECFG0X = pgm_read_byte(cfg++);
 962:	6c ee       	ldi	r22, 0xEC	; 236
 964:	70 e0       	ldi	r23, 0x00	; 0
					UECFG1X = pgm_read_byte(cfg++);
 966:	4d ee       	ldi	r20, 0xED	; 237
 968:	50 e0       	ldi	r21, 0x00	; 0
			cdc_line_rtsdtr = 0;
			transmit_flush_timer = 0;
			usb_send_in();
			cfg = endpoint_config_table;
			for (i=1; i<5; i++) {
				UENUM = i;
 96a:	18 83       	st	Y, r17
				en = pgm_read_byte(cfg++);
 96c:	9c 01       	movw	r18, r24
 96e:	2f 5f       	subi	r18, 0xFF	; 255
 970:	3f 4f       	sbci	r19, 0xFF	; 255
 972:	fc 01       	movw	r30, r24
 974:	04 91       	lpm	r16, Z
				UECONX = en;
 976:	0c 93       	st	X, r16
				if (en) {
 978:	00 23       	and	r16, r16
 97a:	59 f0       	breq	.+22     	; 0x992 <__vector_11+0x192>
					UECFG0X = pgm_read_byte(cfg++);
 97c:	f9 01       	movw	r30, r18
 97e:	24 91       	lpm	r18, Z
 980:	fb 01       	movw	r30, r22
 982:	20 83       	st	Z, r18
 984:	fc 01       	movw	r30, r24
 986:	32 96       	adiw	r30, 0x02	; 2
					UECFG1X = pgm_read_byte(cfg++);
 988:	03 96       	adiw	r24, 0x03	; 3
 98a:	24 91       	lpm	r18, Z
 98c:	fa 01       	movw	r30, r20
 98e:	20 83       	st	Z, r18
 990:	01 c0       	rjmp	.+2      	; 0x994 <__vector_11+0x194>
			transmit_flush_timer = 0;
			usb_send_in();
			cfg = endpoint_config_table;
			for (i=1; i<5; i++) {
				UENUM = i;
				en = pgm_read_byte(cfg++);
 992:	c9 01       	movw	r24, r18
			usb_configuration = wValue;
			cdc_line_rtsdtr = 0;
			transmit_flush_timer = 0;
			usb_send_in();
			cfg = endpoint_config_table;
			for (i=1; i<5; i++) {
 994:	1f 5f       	subi	r17, 0xFF	; 255
 996:	15 30       	cpi	r17, 0x05	; 5
 998:	41 f7       	brne	.-48     	; 0x96a <__vector_11+0x16a>
				if (en) {
					UECFG0X = pgm_read_byte(cfg++);
					UECFG1X = pgm_read_byte(cfg++);
				}
			}
        		UERST = 0x1E;
 99a:	ea ee       	ldi	r30, 0xEA	; 234
 99c:	f0 e0       	ldi	r31, 0x00	; 0
 99e:	8e e1       	ldi	r24, 0x1E	; 30
 9a0:	80 83       	st	Z, r24
        		UERST = 0;
 9a2:	10 82       	st	Z, r1
			return;
 9a4:	a0 c0       	rjmp	.+320    	; 0xae6 <__vector_11+0x2e6>
		}
		if (bRequest == GET_CONFIGURATION && bmRequestType == 0x80) {
 9a6:	48 30       	cpi	r20, 0x08	; 8
 9a8:	81 f4       	brne	.+32     	; 0x9ca <__vector_11+0x1ca>
 9aa:	70 38       	cpi	r23, 0x80	; 128
 9ac:	09 f0       	breq	.+2      	; 0x9b0 <__vector_11+0x1b0>
 9ae:	3f c0       	rjmp	.+126    	; 0xa2e <__vector_11+0x22e>


// Misc functions to wait for ready and send/receive packets
static inline void usb_wait_in_ready(void)
{
	while (!(UEINTX & (1<<TXINI))) ;
 9b0:	e8 ee       	ldi	r30, 0xE8	; 232
 9b2:	f0 e0       	ldi	r31, 0x00	; 0
 9b4:	80 81       	ld	r24, Z
 9b6:	80 ff       	sbrs	r24, 0
 9b8:	fd cf       	rjmp	.-6      	; 0x9b4 <__vector_11+0x1b4>
        		UERST = 0;
			return;
		}
		if (bRequest == GET_CONFIGURATION && bmRequestType == 0x80) {
			usb_wait_in_ready();
			UEDATX = usb_configuration;
 9ba:	80 91 09 01 	lds	r24, 0x0109
 9be:	80 93 f1 00 	sts	0x00F1, r24
{
	while (!(UEINTX & (1<<TXINI))) ;
}
static inline void usb_send_in(void)
{
	UEINTX = ~(1<<TXINI);
 9c2:	8e ef       	ldi	r24, 0xFE	; 254
 9c4:	80 93 e8 00 	sts	0x00E8, r24
 9c8:	8e c0       	rjmp	.+284    	; 0xae6 <__vector_11+0x2e6>
			usb_wait_in_ready();
			UEDATX = usb_configuration;
			usb_send_in();
			return;
		}
		if (bRequest == CDC_GET_LINE_CODING && bmRequestType == 0xA1) {
 9ca:	41 32       	cpi	r20, 0x21	; 33
 9cc:	a9 f4       	brne	.+42     	; 0x9f8 <__vector_11+0x1f8>
 9ce:	71 3a       	cpi	r23, 0xA1	; 161
 9d0:	f1 f5       	brne	.+124    	; 0xa4e <__vector_11+0x24e>


// Misc functions to wait for ready and send/receive packets
static inline void usb_wait_in_ready(void)
{
	while (!(UEINTX & (1<<TXINI))) ;
 9d2:	e8 ee       	ldi	r30, 0xE8	; 232
 9d4:	f0 e0       	ldi	r31, 0x00	; 0
 9d6:	80 81       	ld	r24, Z
 9d8:	80 ff       	sbrs	r24, 0
 9da:	fd cf       	rjmp	.-6      	; 0x9d6 <__vector_11+0x1d6>
 9dc:	e0 e0       	ldi	r30, 0x00	; 0
 9de:	f1 e0       	ldi	r31, 0x01	; 1
		}
		if (bRequest == CDC_GET_LINE_CODING && bmRequestType == 0xA1) {
			usb_wait_in_ready();
			p = cdc_line_coding;
			for (i=0; i<7; i++) {
				UEDATX = *p++;
 9e0:	a1 ef       	ldi	r26, 0xF1	; 241
 9e2:	b0 e0       	ldi	r27, 0x00	; 0
 9e4:	81 91       	ld	r24, Z+
 9e6:	8c 93       	st	X, r24
			return;
		}
		if (bRequest == CDC_GET_LINE_CODING && bmRequestType == 0xA1) {
			usb_wait_in_ready();
			p = cdc_line_coding;
			for (i=0; i<7; i++) {
 9e8:	41 e0       	ldi	r20, 0x01	; 1
 9ea:	e7 30       	cpi	r30, 0x07	; 7
 9ec:	f4 07       	cpc	r31, r20
 9ee:	d1 f7       	brne	.-12     	; 0x9e4 <__vector_11+0x1e4>
{
	while (!(UEINTX & (1<<TXINI))) ;
}
static inline void usb_send_in(void)
{
	UEINTX = ~(1<<TXINI);
 9f0:	8e ef       	ldi	r24, 0xFE	; 254
 9f2:	80 93 e8 00 	sts	0x00E8, r24
 9f6:	77 c0       	rjmp	.+238    	; 0xae6 <__vector_11+0x2e6>
				UEDATX = *p++;
			}
			usb_send_in();
			return;
		}
		if (bRequest == CDC_SET_LINE_CODING && bmRequestType == 0x21) {
 9f8:	40 32       	cpi	r20, 0x20	; 32
 9fa:	c9 f4       	brne	.+50     	; 0xa2e <__vector_11+0x22e>
 9fc:	71 32       	cpi	r23, 0x21	; 33
 9fe:	09 f0       	breq	.+2      	; 0xa02 <__vector_11+0x202>
 a00:	6b c0       	rjmp	.+214    	; 0xad8 <__vector_11+0x2d8>
{
	UEINTX = ~(1<<TXINI);
}
static inline void usb_wait_receive_out(void)
{
	while (!(UEINTX & (1<<RXOUTI))) ;
 a02:	e8 ee       	ldi	r30, 0xE8	; 232
 a04:	f0 e0       	ldi	r31, 0x00	; 0
 a06:	80 81       	ld	r24, Z
 a08:	82 ff       	sbrs	r24, 2
 a0a:	fd cf       	rjmp	.-6      	; 0xa06 <__vector_11+0x206>
 a0c:	e0 e0       	ldi	r30, 0x00	; 0
 a0e:	f1 e0       	ldi	r31, 0x01	; 1
		}
		if (bRequest == CDC_SET_LINE_CODING && bmRequestType == 0x21) {
			usb_wait_receive_out();
			p = cdc_line_coding;
			for (i=0; i<7; i++) {
				*p++ = UEDATX;
 a10:	a1 ef       	ldi	r26, 0xF1	; 241
 a12:	b0 e0       	ldi	r27, 0x00	; 0
 a14:	8c 91       	ld	r24, X
 a16:	81 93       	st	Z+, r24
			return;
		}
		if (bRequest == CDC_SET_LINE_CODING && bmRequestType == 0x21) {
			usb_wait_receive_out();
			p = cdc_line_coding;
			for (i=0; i<7; i++) {
 a18:	51 e0       	ldi	r21, 0x01	; 1
 a1a:	e7 30       	cpi	r30, 0x07	; 7
 a1c:	f5 07       	cpc	r31, r21
 a1e:	d1 f7       	brne	.-12     	; 0xa14 <__vector_11+0x214>
{
	while (!(UEINTX & (1<<RXOUTI))) ;
}
static inline void usb_ack_out(void)
{
	UEINTX = ~(1<<RXOUTI);
 a20:	e8 ee       	ldi	r30, 0xE8	; 232
 a22:	f0 e0       	ldi	r31, 0x00	; 0
 a24:	8b ef       	ldi	r24, 0xFB	; 251
 a26:	80 83       	st	Z, r24
{
	while (!(UEINTX & (1<<TXINI))) ;
}
static inline void usb_send_in(void)
{
	UEINTX = ~(1<<TXINI);
 a28:	8e ef       	ldi	r24, 0xFE	; 254
 a2a:	80 83       	st	Z, r24
 a2c:	5c c0       	rjmp	.+184    	; 0xae6 <__vector_11+0x2e6>
			}
			usb_ack_out();
			usb_send_in();
			return;
		}
		if (bRequest == CDC_SET_CONTROL_LINE_STATE && bmRequestType == 0x21) {
 a2e:	42 32       	cpi	r20, 0x22	; 34
 a30:	71 f4       	brne	.+28     	; 0xa4e <__vector_11+0x24e>
 a32:	71 32       	cpi	r23, 0x21	; 33
 a34:	09 f0       	breq	.+2      	; 0xa38 <__vector_11+0x238>
 a36:	50 c0       	rjmp	.+160    	; 0xad8 <__vector_11+0x2d8>
			cdc_line_rtsdtr = wValue;
 a38:	20 93 0a 01 	sts	0x010A, r18


// Misc functions to wait for ready and send/receive packets
static inline void usb_wait_in_ready(void)
{
	while (!(UEINTX & (1<<TXINI))) ;
 a3c:	e8 ee       	ldi	r30, 0xE8	; 232
 a3e:	f0 e0       	ldi	r31, 0x00	; 0
 a40:	80 81       	ld	r24, Z
 a42:	80 ff       	sbrs	r24, 0
 a44:	fd cf       	rjmp	.-6      	; 0xa40 <__vector_11+0x240>
}
static inline void usb_send_in(void)
{
	UEINTX = ~(1<<TXINI);
 a46:	8e ef       	ldi	r24, 0xFE	; 254
 a48:	80 93 e8 00 	sts	0x00E8, r24
 a4c:	4c c0       	rjmp	.+152    	; 0xae6 <__vector_11+0x2e6>
			cdc_line_rtsdtr = wValue;
			usb_wait_in_ready();
			usb_send_in();
			return;
		}
		if (bRequest == GET_STATUS) {
 a4e:	41 11       	cpse	r20, r1
 a50:	1a c0       	rjmp	.+52     	; 0xa86 <__vector_11+0x286>


// Misc functions to wait for ready and send/receive packets
static inline void usb_wait_in_ready(void)
{
	while (!(UEINTX & (1<<TXINI))) ;
 a52:	e8 ee       	ldi	r30, 0xE8	; 232
 a54:	f0 e0       	ldi	r31, 0x00	; 0
 a56:	20 81       	ld	r18, Z
 a58:	20 ff       	sbrs	r18, 0
 a5a:	fd cf       	rjmp	.-6      	; 0xa56 <__vector_11+0x256>
		}
		if (bRequest == GET_STATUS) {
			usb_wait_in_ready();
			i = 0;
			#ifdef SUPPORT_ENDPOINT_HALT
			if (bmRequestType == 0x82) {
 a5c:	72 38       	cpi	r23, 0x82	; 130
 a5e:	51 f4       	brne	.+20     	; 0xa74 <__vector_11+0x274>
				UENUM = wIndex;
 a60:	e9 ee       	ldi	r30, 0xE9	; 233
 a62:	f0 e0       	ldi	r31, 0x00	; 0
 a64:	80 83       	st	Z, r24
				if (UECONX & (1<<STALLRQ)) i = 1;
 a66:	80 91 eb 00 	lds	r24, 0x00EB
 a6a:	85 fb       	bst	r24, 5
 a6c:	88 27       	eor	r24, r24
 a6e:	80 f9       	bld	r24, 0
				UENUM = 0;
 a70:	10 82       	st	Z, r1
 a72:	01 c0       	rjmp	.+2      	; 0xa76 <__vector_11+0x276>
			usb_send_in();
			return;
		}
		if (bRequest == GET_STATUS) {
			usb_wait_in_ready();
			i = 0;
 a74:	80 e0       	ldi	r24, 0x00	; 0
				UENUM = wIndex;
				if (UECONX & (1<<STALLRQ)) i = 1;
				UENUM = 0;
			}
			#endif
			UEDATX = i;
 a76:	e1 ef       	ldi	r30, 0xF1	; 241
 a78:	f0 e0       	ldi	r31, 0x00	; 0
 a7a:	80 83       	st	Z, r24
			UEDATX = 0;
 a7c:	10 82       	st	Z, r1
{
	while (!(UEINTX & (1<<TXINI))) ;
}
static inline void usb_send_in(void)
{
	UEINTX = ~(1<<TXINI);
 a7e:	8e ef       	ldi	r24, 0xFE	; 254
 a80:	80 93 e8 00 	sts	0x00E8, r24
 a84:	30 c0       	rjmp	.+96     	; 0xae6 <__vector_11+0x2e6>
			UEDATX = 0;
			usb_send_in();
			return;
		}
		#ifdef SUPPORT_ENDPOINT_HALT
		if ((bRequest == CLEAR_FEATURE || bRequest == SET_FEATURE)
 a86:	41 30       	cpi	r20, 0x01	; 1
 a88:	11 f0       	breq	.+4      	; 0xa8e <__vector_11+0x28e>
 a8a:	43 30       	cpi	r20, 0x03	; 3
 a8c:	29 f5       	brne	.+74     	; 0xad8 <__vector_11+0x2d8>
		  && bmRequestType == 0x02 && wValue == 0) {
 a8e:	72 30       	cpi	r23, 0x02	; 2
 a90:	19 f5       	brne	.+70     	; 0xad8 <__vector_11+0x2d8>
 a92:	23 2b       	or	r18, r19
 a94:	09 f5       	brne	.+66     	; 0xad8 <__vector_11+0x2d8>
			i = wIndex & 0x7F;
 a96:	8f 77       	andi	r24, 0x7F	; 127
 a98:	99 27       	eor	r25, r25
			if (i >= 1 && i <= MAX_ENDPOINT) {
 a9a:	38 2f       	mov	r19, r24
 a9c:	31 50       	subi	r19, 0x01	; 1
 a9e:	34 30       	cpi	r19, 0x04	; 4
 aa0:	d8 f4       	brcc	.+54     	; 0xad8 <__vector_11+0x2d8>
{
	while (!(UEINTX & (1<<TXINI))) ;
}
static inline void usb_send_in(void)
{
	UEINTX = ~(1<<TXINI);
 aa2:	3e ef       	ldi	r19, 0xFE	; 254
 aa4:	30 93 e8 00 	sts	0x00E8, r19
		if ((bRequest == CLEAR_FEATURE || bRequest == SET_FEATURE)
		  && bmRequestType == 0x02 && wValue == 0) {
			i = wIndex & 0x7F;
			if (i >= 1 && i <= MAX_ENDPOINT) {
				usb_send_in();
				UENUM = i;
 aa8:	80 93 e9 00 	sts	0x00E9, r24
				if (bRequest == SET_FEATURE) {
 aac:	43 30       	cpi	r20, 0x03	; 3
 aae:	21 f4       	brne	.+8      	; 0xab8 <__vector_11+0x2b8>
					UECONX = (1<<STALLRQ)|(1<<EPEN);
 ab0:	81 e2       	ldi	r24, 0x21	; 33
 ab2:	80 93 eb 00 	sts	0x00EB, r24
 ab6:	17 c0       	rjmp	.+46     	; 0xae6 <__vector_11+0x2e6>
				} else {
					UECONX = (1<<STALLRQC)|(1<<RSTDT)|(1<<EPEN);
 ab8:	99 e1       	ldi	r25, 0x19	; 25
 aba:	90 93 eb 00 	sts	0x00EB, r25
					UERST = (1 << i);
 abe:	21 e0       	ldi	r18, 0x01	; 1
 ac0:	30 e0       	ldi	r19, 0x00	; 0
 ac2:	d9 01       	movw	r26, r18
 ac4:	02 c0       	rjmp	.+4      	; 0xaca <__vector_11+0x2ca>
 ac6:	aa 0f       	add	r26, r26
 ac8:	bb 1f       	adc	r27, r27
 aca:	8a 95       	dec	r24
 acc:	e2 f7       	brpl	.-8      	; 0xac6 <__vector_11+0x2c6>
 ace:	ea ee       	ldi	r30, 0xEA	; 234
 ad0:	f0 e0       	ldi	r31, 0x00	; 0
 ad2:	a0 83       	st	Z, r26
					UERST = 0;
 ad4:	10 82       	st	Z, r1
 ad6:	07 c0       	rjmp	.+14     	; 0xae6 <__vector_11+0x2e6>
				return;
			}
		}
		#endif
        }
	UECONX = (1<<STALLRQ) | (1<<EPEN);	// stall
 ad8:	81 e2       	ldi	r24, 0x21	; 33
 ada:	80 93 eb 00 	sts	0x00EB, r24
 ade:	03 c0       	rjmp	.+6      	; 0xae6 <__vector_11+0x2e6>
{
	while (!(UEINTX & (1<<TXINI))) ;
}
static inline void usb_send_in(void)
{
	UEINTX = ~(1<<TXINI);
 ae0:	78 83       	st	Y, r23
				for (i = n; i; i--) {
					UEDATX = pgm_read_byte(desc_addr++);
				}
				len -= n;
				usb_send_in();
			} while (len || n == ENDPOINT0_SIZE);
 ae2:	41 11       	cpse	r20, r1
 ae4:	fa ce       	rjmp	.-524    	; 0x8da <__vector_11+0xda>
			}
		}
		#endif
        }
	UECONX = (1<<STALLRQ) | (1<<EPEN);	// stall
}
 ae6:	ff 91       	pop	r31
 ae8:	ef 91       	pop	r30
 aea:	df 91       	pop	r29
 aec:	cf 91       	pop	r28
 aee:	bf 91       	pop	r27
 af0:	af 91       	pop	r26
 af2:	9f 91       	pop	r25
 af4:	8f 91       	pop	r24
 af6:	7f 91       	pop	r23
 af8:	6f 91       	pop	r22
 afa:	5f 91       	pop	r21
 afc:	4f 91       	pop	r20
 afe:	3f 91       	pop	r19
 b00:	2f 91       	pop	r18
 b02:	1f 91       	pop	r17
 b04:	0f 91       	pop	r16
 b06:	0f 90       	pop	r0
 b08:	0f be       	out	0x3f, r0	; 63
 b0a:	0f 90       	pop	r0
 b0c:	1f 90       	pop	r1
 b0e:	18 95       	reti

00000b10 <main>:
	
	m_rf_open(CHANNEL, ADDRESS, PACKET_LENGTH);
	int counter = 0;
	/*/
	
	m_num_init();
 b10:	0e 94 0e 03 	call	0x61c	; 0x61c <m_num_init>
	int flag;
	
	m_clockdivide(0);
 b14:	e1 e6       	ldi	r30, 0x61	; 97
 b16:	f0 e0       	ldi	r31, 0x00	; 0
 b18:	80 e8       	ldi	r24, 0x80	; 128
 b1a:	80 83       	st	Z, r24
 b1c:	10 82       	st	Z, r1
	
	//TIMER 0: For Controlling the solenoid
	
	set(TCCR0B, WGM02);
 b1e:	85 b5       	in	r24, 0x25	; 37
 b20:	88 60       	ori	r24, 0x08	; 8
 b22:	85 bd       	out	0x25, r24	; 37
	set(TCCR0A, WGM01);
 b24:	84 b5       	in	r24, 0x24	; 36
 b26:	82 60       	ori	r24, 0x02	; 2
 b28:	84 bd       	out	0x24, r24	; 36
	set(TCCR0A, WGM01);
 b2a:	84 b5       	in	r24, 0x24	; 36
 b2c:	82 60       	ori	r24, 0x02	; 2
 b2e:	84 bd       	out	0x24, r24	; 36
	
	set(TCCR0A, COM0B1);
 b30:	84 b5       	in	r24, 0x24	; 36
 b32:	80 62       	ori	r24, 0x20	; 32
 b34:	84 bd       	out	0x24, r24	; 36
	clear(TCCR0A, COM0B0);
 b36:	84 b5       	in	r24, 0x24	; 36
 b38:	8f 7e       	andi	r24, 0xEF	; 239
 b3a:	84 bd       	out	0x24, r24	; 36
	
	set(TCCR0B, CS02);
 b3c:	85 b5       	in	r24, 0x25	; 37
 b3e:	84 60       	ori	r24, 0x04	; 4
 b40:	85 bd       	out	0x25, r24	; 37
	set(TCCR0B, CS01);
 b42:	85 b5       	in	r24, 0x25	; 37
 b44:	82 60       	ori	r24, 0x02	; 2
 b46:	85 bd       	out	0x25, r24	; 37
	set(TCCR0B, CS00);
 b48:	85 b5       	in	r24, 0x25	; 37
 b4a:	81 60       	ori	r24, 0x01	; 1
 b4c:	85 bd       	out	0x25, r24	; 37
	
	set(DDRB,7);
 b4e:	27 9a       	sbi	0x04, 7	; 4
	
	OCR1A = 0xFF;
 b50:	c8 e8       	ldi	r28, 0x88	; 136
 b52:	d0 e0       	ldi	r29, 0x00	; 0
 b54:	8f ef       	ldi	r24, 0xFF	; 255
 b56:	90 e0       	ldi	r25, 0x00	; 0
 b58:	99 83       	std	Y+1, r25	; 0x01
 b5a:	88 83       	st	Y, r24
	OCR1B = 0;
 b5c:	2a e8       	ldi	r18, 0x8A	; 138
 b5e:	30 e0       	ldi	r19, 0x00	; 0
 b60:	f9 01       	movw	r30, r18
 b62:	11 82       	std	Z+1, r1	; 0x01
 b64:	10 82       	st	Z, r1
	
	//TIMER 1: For Controlling the left wheel
	
	set(TCCR1B, WGM13);
 b66:	e1 e8       	ldi	r30, 0x81	; 129
 b68:	f0 e0       	ldi	r31, 0x00	; 0
 b6a:	80 81       	ld	r24, Z
 b6c:	80 61       	ori	r24, 0x10	; 16
 b6e:	80 83       	st	Z, r24
	set(TCCR1B, WGM12);
 b70:	80 81       	ld	r24, Z
 b72:	88 60       	ori	r24, 0x08	; 8
 b74:	80 83       	st	Z, r24
	set(TCCR1A, WGM11);
 b76:	a0 e8       	ldi	r26, 0x80	; 128
 b78:	b0 e0       	ldi	r27, 0x00	; 0
 b7a:	8c 91       	ld	r24, X
 b7c:	82 60       	ori	r24, 0x02	; 2
 b7e:	8c 93       	st	X, r24
	set(TCCR1A, WGM10);
 b80:	8c 91       	ld	r24, X
 b82:	81 60       	ori	r24, 0x01	; 1
 b84:	8c 93       	st	X, r24
	
	set(TCCR1A, COM1B1);
 b86:	8c 91       	ld	r24, X
 b88:	80 62       	ori	r24, 0x20	; 32
 b8a:	8c 93       	st	X, r24
	clear(TCCR1A, COM1B0);
 b8c:	8c 91       	ld	r24, X
 b8e:	8f 7e       	andi	r24, 0xEF	; 239
 b90:	8c 93       	st	X, r24
	
	clear(TCCR1B, CS12);
 b92:	80 81       	ld	r24, Z
 b94:	8b 7f       	andi	r24, 0xFB	; 251
 b96:	80 83       	st	Z, r24
	clear(TCCR1B, CS11);
 b98:	80 81       	ld	r24, Z
 b9a:	8d 7f       	andi	r24, 0xFD	; 253
 b9c:	80 83       	st	Z, r24
	set(TCCR1B, CS10);
 b9e:	80 81       	ld	r24, Z
 ba0:	81 60       	ori	r24, 0x01	; 1
 ba2:	80 83       	st	Z, r24
	
	set(DDRB,6);
 ba4:	26 9a       	sbi	0x04, 6	; 4
	
	OCR1A = 0xFFFF;
 ba6:	8f ef       	ldi	r24, 0xFF	; 255
 ba8:	9f ef       	ldi	r25, 0xFF	; 255
 baa:	99 83       	std	Y+1, r25	; 0x01
 bac:	88 83       	st	Y, r24
	OCR1B = 0;
 bae:	f9 01       	movw	r30, r18
 bb0:	11 82       	std	Z+1, r1	; 0x01
 bb2:	10 82       	st	Z, r1
	
	//TIMER 3: For Controlling the right wheel
	
	set(TCCR3B, WGM33);
 bb4:	e1 e9       	ldi	r30, 0x91	; 145
 bb6:	f0 e0       	ldi	r31, 0x00	; 0
 bb8:	20 81       	ld	r18, Z
 bba:	20 61       	ori	r18, 0x10	; 16
 bbc:	20 83       	st	Z, r18
	set(TCCR3B, WGM32);
 bbe:	20 81       	ld	r18, Z
 bc0:	28 60       	ori	r18, 0x08	; 8
 bc2:	20 83       	st	Z, r18
	set(TCCR3A, WGM31);
 bc4:	a0 e9       	ldi	r26, 0x90	; 144
 bc6:	b0 e0       	ldi	r27, 0x00	; 0
 bc8:	2c 91       	ld	r18, X
 bca:	22 60       	ori	r18, 0x02	; 2
 bcc:	2c 93       	st	X, r18
	clear(TCCR3A, WGM30);
 bce:	2c 91       	ld	r18, X
 bd0:	2e 7f       	andi	r18, 0xFE	; 254
 bd2:	2c 93       	st	X, r18
	
	set(TCCR3A, COM3A1);
 bd4:	2c 91       	ld	r18, X
 bd6:	20 68       	ori	r18, 0x80	; 128
 bd8:	2c 93       	st	X, r18
	clear(TCCR3A, COM3A0);
 bda:	2c 91       	ld	r18, X
 bdc:	2f 7b       	andi	r18, 0xBF	; 191
 bde:	2c 93       	st	X, r18
	
	clear(TCCR3B, CS32);
 be0:	20 81       	ld	r18, Z
 be2:	2b 7f       	andi	r18, 0xFB	; 251
 be4:	20 83       	st	Z, r18
	clear(TCCR3B, CS31);
 be6:	20 81       	ld	r18, Z
 be8:	2d 7f       	andi	r18, 0xFD	; 253
 bea:	20 83       	st	Z, r18
	set(TCCR3B, CS30);
 bec:	20 81       	ld	r18, Z
 bee:	21 60       	ori	r18, 0x01	; 1
 bf0:	20 83       	st	Z, r18
	
	ICR3 = 0xFFFF;
 bf2:	90 93 97 00 	sts	0x0097, r25
 bf6:	80 93 96 00 	sts	0x0096, r24
	OCR1A = 0;
 bfa:	19 82       	std	Y+1, r1	; 0x01
 bfc:	18 82       	st	Y, r1
	
	//Pin for controlling solenoid pulse
	set(DDRB,7);
 bfe:	27 9a       	sbi	0x04, 7	; 4
	
	//Pins for controlling speed of left and right wheel
	set(DDRB,6);
 c00:	26 9a       	sbi	0x04, 6	; 4
	set(DDRC,6);
 c02:	3e 9a       	sbi	0x07, 6	; 7
	
	//Pins for determining direction of wheels
	set(DDRB,2);
 c04:	22 9a       	sbi	0x04, 2	; 4
	set(DDRB,3);
 c06:	23 9a       	sbi	0x04, 3	; 4
	
	//ADC's
	sei();					//Set up interrupts
 c08:	78 94       	sei
	set(ADCSRA,ADIE);
 c0a:	ea e7       	ldi	r30, 0x7A	; 122
 c0c:	f0 e0       	ldi	r31, 0x00	; 0
 c0e:	80 81       	ld	r24, Z
 c10:	88 60       	ori	r24, 0x08	; 8
 c12:	80 83       	st	Z, r24
	
	clear(ADMUX, REFS1);	//Voltage reference is AR pin (5V)
 c14:	ac e7       	ldi	r26, 0x7C	; 124
 c16:	b0 e0       	ldi	r27, 0x00	; 0
 c18:	8c 91       	ld	r24, X
 c1a:	8f 77       	andi	r24, 0x7F	; 127
 c1c:	8c 93       	st	X, r24
	clear(ADMUX, REFS0);	//^
 c1e:	8c 91       	ld	r24, X
 c20:	8f 7b       	andi	r24, 0xBF	; 191
 c22:	8c 93       	st	X, r24
	
	set(ADCSRA, ADPS2);	//Set scale to /128
 c24:	80 81       	ld	r24, Z
 c26:	84 60       	ori	r24, 0x04	; 4
 c28:	80 83       	st	Z, r24
	set(ADCSRA, ADPS1);	//^
 c2a:	80 81       	ld	r24, Z
 c2c:	82 60       	ori	r24, 0x02	; 2
 c2e:	80 83       	st	Z, r24
	set(ADCSRA, ADPS0);	//^
 c30:	80 81       	ld	r24, Z
 c32:	81 60       	ori	r24, 0x01	; 1
 c34:	80 83       	st	Z, r24
	
	set(DIDR0, ADC0D);	//Disable digital input for F0
 c36:	ae e7       	ldi	r26, 0x7E	; 126
 c38:	b0 e0       	ldi	r27, 0x00	; 0
 c3a:	8c 91       	ld	r24, X
 c3c:	81 60       	ori	r24, 0x01	; 1
 c3e:	8c 93       	st	X, r24
	set(DIDR0, ADC1D);	//Disable digital input for F1
 c40:	8c 91       	ld	r24, X
 c42:	82 60       	ori	r24, 0x02	; 2
 c44:	8c 93       	st	X, r24
	set(DIDR0, ADC4D);	//Disable digital input for F4
 c46:	8c 91       	ld	r24, X
 c48:	80 61       	ori	r24, 0x10	; 16
 c4a:	8c 93       	st	X, r24
	set(DIDR0, ADC5D);	//Disable digital input for F5
 c4c:	8c 91       	ld	r24, X
 c4e:	80 62       	ori	r24, 0x20	; 32
 c50:	8c 93       	st	X, r24
	set(DIDR0, ADC6D);	//Disable digital input for F6
 c52:	8c 91       	ld	r24, X
 c54:	80 64       	ori	r24, 0x40	; 64
 c56:	8c 93       	st	X, r24
	set(DIDR2, ADC8D);	//Disable digital input for D4
 c58:	ad e7       	ldi	r26, 0x7D	; 125
 c5a:	b0 e0       	ldi	r27, 0x00	; 0
 c5c:	8c 91       	ld	r24, X
 c5e:	81 60       	ori	r24, 0x01	; 1
 c60:	8c 93       	st	X, r24
	set(DIDR2, ADC9D);	//Disable digital input for D6
 c62:	8c 91       	ld	r24, X
 c64:	82 60       	ori	r24, 0x02	; 2
 c66:	8c 93       	st	X, r24
		
	set(ADCSRA, ADATE);	//Set trigger to free-running mode
 c68:	80 81       	ld	r24, Z
 c6a:	80 62       	ori	r24, 0x20	; 32
 c6c:	80 83       	st	Z, r24
	
	set(ADCSRA, ADIF);	//Enable reading results
 c6e:	80 81       	ld	r24, Z
 c70:	80 61       	ori	r24, 0x10	; 16
 c72:	80 83       	st	Z, r24
	
	//Limit Switch stuffs
	clear(DDRB,0); //set to input, RIGHT LIMIT SWITCH
 c74:	20 98       	cbi	0x04, 0	; 4
	clear(DDRB,1); //set to input, LEFT LIMIT SWITCH
 c76:	21 98       	cbi	0x04, 1	; 4
	
	clear(PORTB,0); //disable internal pull up resistor
 c78:	28 98       	cbi	0x05, 0	; 5
	clear(PORTB,1); //disable internal pull up resistor
 c7a:	29 98       	cbi	0x05, 1	; 5
	 
	int state; // state variable
	state = -1; //set state
	int count = 0;
	
	m_usb_init();
 c7c:	0e 94 a9 03 	call	0x752	; 0x752 <m_usb_init>
		//wireless stuffs
		
        //manually say what each buffer[i] will be (corresponds to a state, variable output, etc.)

        //e.g.
        buffer[0] = 50;
 c80:	0b e0       	ldi	r16, 0x0B	; 11
 c82:	11 e0       	ldi	r17, 0x01	; 1
 c84:	0f 2e       	mov	r0, r31
 c86:	f2 e3       	ldi	r31, 0x32	; 50
 c88:	ef 2e       	mov	r14, r31
 c8a:	f0 2d       	mov	r31, r0
        buffer[1] = 2;
 c8c:	cc e0       	ldi	r28, 0x0C	; 12
 c8e:	d1 e0       	ldi	r29, 0x01	; 1
 c90:	68 94       	set
 c92:	ff 24       	eor	r15, r15
 c94:	f1 f8       	bld	r15, 1
		//wireless stuffs
		
        //manually say what each buffer[i] will be (corresponds to a state, variable output, etc.)

        //e.g.
        buffer[0] = 50;
 c96:	f8 01       	movw	r30, r16
 c98:	e0 82       	st	Z, r14
        buffer[1] = 2;
 c9a:	f8 82       	st	Y, r15
 c9c:	ff ef       	ldi	r31, 0xFF	; 255
 c9e:	29 e6       	ldi	r18, 0x69	; 105
 ca0:	88 e1       	ldi	r24, 0x18	; 24
 ca2:	f1 50       	subi	r31, 0x01	; 1
 ca4:	20 40       	sbci	r18, 0x00	; 0
 ca6:	80 40       	sbci	r24, 0x00	; 0
 ca8:	e1 f7       	brne	.-8      	; 0xca2 <main+0x192>
 caa:	00 c0       	rjmp	.+0      	; 0xcac <main+0x19c>
 cac:	00 00       	nop
			break;
			
				
			case -1: //testing electronics/LED number display
				m_wait(500);
				disp(8);
 cae:	88 e0       	ldi	r24, 0x08	; 8
 cb0:	90 e0       	ldi	r25, 0x00	; 0
 cb2:	0e 94 7d 01 	call	0x2fa	; 0x2fa <disp>
 cb6:	ef cf       	rjmp	.-34     	; 0xc96 <main+0x186>

00000cb8 <__vector_29>:
		}
        
    }
}

ISR(ADC_vect) {
 cb8:	1f 92       	push	r1
 cba:	0f 92       	push	r0
 cbc:	0f b6       	in	r0, 0x3f	; 63
 cbe:	0f 92       	push	r0
 cc0:	11 24       	eor	r1, r1
 cc2:	2f 93       	push	r18
 cc4:	8f 93       	push	r24
 cc6:	9f 93       	push	r25
	if (ADC  > 500) {
 cc8:	80 91 78 00 	lds	r24, 0x0078
 ccc:	90 91 79 00 	lds	r25, 0x0079
 cd0:	85 3f       	cpi	r24, 0xF5	; 245
 cd2:	91 40       	sbci	r25, 0x01	; 1
 cd4:	18 f0       	brcs	.+6      	; 0xcdc <__vector_29+0x24>
		m_green(ON);
 cd6:	6a 9a       	sbi	0x0d, 2	; 13
 cd8:	72 98       	cbi	0x0e, 2	; 14
 cda:	02 c0       	rjmp	.+4      	; 0xce0 <__vector_29+0x28>
	}
	
	else {
		m_green(OFF);
 cdc:	6a 9a       	sbi	0x0d, 2	; 13
 cde:	72 9a       	sbi	0x0e, 2	; 14
	}
 ce0:	9f 91       	pop	r25
 ce2:	8f 91       	pop	r24
 ce4:	2f 91       	pop	r18
 ce6:	0f 90       	pop	r0
 ce8:	0f be       	out	0x3f, r0	; 63
 cea:	0f 90       	pop	r0
 cec:	1f 90       	pop	r1
 cee:	18 95       	reti

00000cf0 <_exit>:
 cf0:	f8 94       	cli

00000cf2 <__stop_program>:
 cf2:	ff cf       	rjmp	.-2      	; 0xcf2 <__stop_program>
