
Wireless Communication -- Computer Side.elf:     file format elf32-avr

Sections:
Idx Name          Size      VMA       LMA       File off  Algn
  0 .data         00000008  00800100  000009e2  00000a76  2**0
                  CONTENTS, ALLOC, LOAD, DATA
  1 .text         000009e2  00000000  00000000  00000094  2**1
                  CONTENTS, ALLOC, LOAD, READONLY, CODE
  2 .bss          00000009  00800108  00800108  00000a7e  2**0
                  ALLOC
  3 .stab         0000099c  00000000  00000000  00000a80  2**2
                  CONTENTS, READONLY, DEBUGGING
  4 .stabstr      000002ed  00000000  00000000  0000141c  2**0
                  CONTENTS, READONLY, DEBUGGING
  5 .comment      0000002f  00000000  00000000  00001709  2**0
                  CONTENTS, READONLY
  6 .debug_aranges 00000190  00000000  00000000  00001738  2**0
                  CONTENTS, READONLY, DEBUGGING
  7 .debug_info   000013fc  00000000  00000000  000018c8  2**0
                  CONTENTS, READONLY, DEBUGGING
  8 .debug_abbrev 00000558  00000000  00000000  00002cc4  2**0
                  CONTENTS, READONLY, DEBUGGING
  9 .debug_line   000009cc  00000000  00000000  0000321c  2**0
                  CONTENTS, READONLY, DEBUGGING
 10 .debug_frame  000004c4  00000000  00000000  00003be8  2**2
                  CONTENTS, READONLY, DEBUGGING
 11 .debug_str    000005f9  00000000  00000000  000040ac  2**0
                  CONTENTS, READONLY, DEBUGGING
 12 .debug_loc    00001e97  00000000  00000000  000046a5  2**0
                  CONTENTS, READONLY, DEBUGGING
 13 .debug_ranges 000001a0  00000000  00000000  0000653c  2**0
                  CONTENTS, READONLY, DEBUGGING

Disassembly of section .text:

00000000 <__vectors>:
   0:	0c 94 b0 00 	jmp	0x160	; 0x160 <__ctors_end>
   4:	0c 94 cd 00 	jmp	0x19a	; 0x19a <__bad_interrupt>
   8:	0c 94 cd 00 	jmp	0x19a	; 0x19a <__bad_interrupt>
   c:	0c 94 6b 04 	jmp	0x8d6	; 0x8d6 <__vector_3>
  10:	0c 94 cd 00 	jmp	0x19a	; 0x19a <__bad_interrupt>
  14:	0c 94 cd 00 	jmp	0x19a	; 0x19a <__bad_interrupt>
  18:	0c 94 cd 00 	jmp	0x19a	; 0x19a <__bad_interrupt>
  1c:	0c 94 cd 00 	jmp	0x19a	; 0x19a <__bad_interrupt>
  20:	0c 94 cd 00 	jmp	0x19a	; 0x19a <__bad_interrupt>
  24:	0c 94 cd 00 	jmp	0x19a	; 0x19a <__bad_interrupt>
  28:	0c 94 40 02 	jmp	0x480	; 0x480 <__vector_10>
  2c:	0c 94 7e 02 	jmp	0x4fc	; 0x4fc <__vector_11>
  30:	0c 94 cd 00 	jmp	0x19a	; 0x19a <__bad_interrupt>
  34:	0c 94 cd 00 	jmp	0x19a	; 0x19a <__bad_interrupt>
  38:	0c 94 cd 00 	jmp	0x19a	; 0x19a <__bad_interrupt>
  3c:	0c 94 cd 00 	jmp	0x19a	; 0x19a <__bad_interrupt>
  40:	0c 94 cd 00 	jmp	0x19a	; 0x19a <__bad_interrupt>
  44:	0c 94 cd 00 	jmp	0x19a	; 0x19a <__bad_interrupt>
  48:	0c 94 cd 00 	jmp	0x19a	; 0x19a <__bad_interrupt>
  4c:	0c 94 cd 00 	jmp	0x19a	; 0x19a <__bad_interrupt>
  50:	0c 94 cd 00 	jmp	0x19a	; 0x19a <__bad_interrupt>
  54:	0c 94 cd 00 	jmp	0x19a	; 0x19a <__bad_interrupt>
  58:	0c 94 cd 00 	jmp	0x19a	; 0x19a <__bad_interrupt>
  5c:	0c 94 cd 00 	jmp	0x19a	; 0x19a <__bad_interrupt>
  60:	0c 94 cd 00 	jmp	0x19a	; 0x19a <__bad_interrupt>
  64:	0c 94 cd 00 	jmp	0x19a	; 0x19a <__bad_interrupt>
  68:	0c 94 cd 00 	jmp	0x19a	; 0x19a <__bad_interrupt>
  6c:	0c 94 cd 00 	jmp	0x19a	; 0x19a <__bad_interrupt>
  70:	0c 94 cd 00 	jmp	0x19a	; 0x19a <__bad_interrupt>
  74:	0c 94 cd 00 	jmp	0x19a	; 0x19a <__bad_interrupt>
  78:	0c 94 cd 00 	jmp	0x19a	; 0x19a <__bad_interrupt>
  7c:	0c 94 cd 00 	jmp	0x19a	; 0x19a <__bad_interrupt>
  80:	0c 94 cd 00 	jmp	0x19a	; 0x19a <__bad_interrupt>
  84:	0c 94 cd 00 	jmp	0x19a	; 0x19a <__bad_interrupt>
  88:	0c 94 cd 00 	jmp	0x19a	; 0x19a <__bad_interrupt>
  8c:	0c 94 cd 00 	jmp	0x19a	; 0x19a <__bad_interrupt>
  90:	0c 94 cd 00 	jmp	0x19a	; 0x19a <__bad_interrupt>
  94:	0c 94 cd 00 	jmp	0x19a	; 0x19a <__bad_interrupt>
  98:	0c 94 cd 00 	jmp	0x19a	; 0x19a <__bad_interrupt>
  9c:	0c 94 cd 00 	jmp	0x19a	; 0x19a <__bad_interrupt>
  a0:	0c 94 cd 00 	jmp	0x19a	; 0x19a <__bad_interrupt>
  a4:	0c 94 cd 00 	jmp	0x19a	; 0x19a <__bad_interrupt>
  a8:	0c 94 cd 00 	jmp	0x19a	; 0x19a <__bad_interrupt>

000000ac <descriptor_list>:
  ac:	00 01 00 00 e0 00 12 00 02 00 00 f2 00 43 00 03     .............C..
  bc:	00 00 35 01 04 01 03 09 04 39 01 12 02 03 09 04     ..5......9......
  cc:	4d 01 06 03 03 09 04 55 01 08                       M......U..

000000d6 <endpoint_config_table>:
  d6:	00 01 c1 12 01 80 36 01 81 36                       ......6..6

000000e0 <device_descriptor>:
  e0:	12 01 00 02 02 00 00 10 c0 16 7a 04 00 01 01 02     ..........z.....
  f0:	03 01                                               ..

000000f2 <config1_descriptor>:
  f2:	09 02 43 00 02 01 00 c0 32 09 04 00 00 01 02 02     ..C.....2.......
 102:	01 00 05 24 00 10 01 05 24 01 01 01 04 24 02 06     ...$....$....$..
 112:	05 24 06 00 01 07 05 82 03 10 00 40 09 04 01 00     .$.........@....
 122:	02 0a 00 00 00 07 05 03 02 40 00 00 07 05 84 02     .........@......
 132:	40 00 00                                            @..

00000135 <string0>:
 135:	04 03 09 04                                         ....

00000139 <string1>:
 139:	12 03 4a 00 2e 00 20 00 46 00 69 00 65 00 6e 00     ..J... .F.i.e.n.
 149:	65 00 00 00                                         e...

0000014d <string2>:
 14d:	06 03 4d 00 32 00 00 00                             ..M.2...

00000155 <string3>:
 155:	08 03 34 00 31 00 30 00 00 00 00                    ..4.1.0....

00000160 <__ctors_end>:
 160:	11 24       	eor	r1, r1
 162:	1f be       	out	0x3f, r1	; 63
 164:	cf ef       	ldi	r28, 0xFF	; 255
 166:	da e0       	ldi	r29, 0x0A	; 10
 168:	de bf       	out	0x3e, r29	; 62
 16a:	cd bf       	out	0x3d, r28	; 61

0000016c <__do_copy_data>:
 16c:	11 e0       	ldi	r17, 0x01	; 1
 16e:	a0 e0       	ldi	r26, 0x00	; 0
 170:	b1 e0       	ldi	r27, 0x01	; 1
 172:	e2 ee       	ldi	r30, 0xE2	; 226
 174:	f9 e0       	ldi	r31, 0x09	; 9
 176:	02 c0       	rjmp	.+4      	; 0x17c <__do_copy_data+0x10>
 178:	05 90       	lpm	r0, Z+
 17a:	0d 92       	st	X+, r0
 17c:	a8 30       	cpi	r26, 0x08	; 8
 17e:	b1 07       	cpc	r27, r17
 180:	d9 f7       	brne	.-10     	; 0x178 <__do_copy_data+0xc>

00000182 <__do_clear_bss>:
 182:	21 e0       	ldi	r18, 0x01	; 1
 184:	a8 e0       	ldi	r26, 0x08	; 8
 186:	b1 e0       	ldi	r27, 0x01	; 1
 188:	01 c0       	rjmp	.+2      	; 0x18c <.do_clear_bss_start>

0000018a <.do_clear_bss_loop>:
 18a:	1d 92       	st	X+, r1

0000018c <.do_clear_bss_start>:
 18c:	a1 31       	cpi	r26, 0x11	; 17
 18e:	b2 07       	cpc	r27, r18
 190:	e1 f7       	brne	.-8      	; 0x18a <.do_clear_bss_loop>
 192:	0e 94 3b 04 	call	0x876	; 0x876 <main>
 196:	0c 94 ef 04 	jmp	0x9de	; 0x9de <_exit>

0000019a <__bad_interrupt>:
 19a:	0c 94 00 00 	jmp	0	; 0x0 <__vectors>

0000019e <m_bus_init>:
 19e:	58 9a       	sbi	0x0b, 0	; 11
 1a0:	59 9a       	sbi	0x0b, 1	; 11
 1a2:	5a 9a       	sbi	0x0b, 2	; 11
 1a4:	8c e0       	ldi	r24, 0x0C	; 12
 1a6:	80 93 b8 00 	sts	0x00B8, r24
 1aa:	e9 e6       	ldi	r30, 0x69	; 105
 1ac:	f0 e0       	ldi	r31, 0x00	; 0
 1ae:	80 81       	ld	r24, Z
 1b0:	80 62       	ori	r24, 0x20	; 32
 1b2:	80 83       	st	Z, r24
 1b4:	80 81       	ld	r24, Z
 1b6:	8f 7e       	andi	r24, 0xEF	; 239
 1b8:	80 83       	st	Z, r24
 1ba:	ea 9a       	sbi	0x1d, 2	; 29
 1bc:	78 94       	sei
 1be:	08 95       	ret

000001c0 <m_rf_open>:
 1c0:	1f 93       	push	r17
 1c2:	cf 93       	push	r28
 1c4:	df 93       	push	r29
 1c6:	18 2f       	mov	r17, r24
 1c8:	d6 2f       	mov	r29, r22
 1ca:	c4 2f       	mov	r28, r20
 1cc:	0e 94 cf 00 	call	0x19e	; 0x19e <m_bus_init>
 1d0:	94 ea       	ldi	r25, 0xA4	; 164
 1d2:	90 93 bc 00 	sts	0x00BC, r25
 1d6:	ec eb       	ldi	r30, 0xBC	; 188
 1d8:	f0 e0       	ldi	r31, 0x00	; 0
 1da:	90 81       	ld	r25, Z
 1dc:	99 23       	and	r25, r25
 1de:	ec f7       	brge	.-6      	; 0x1da <m_rf_open+0x1a>
 1e0:	90 e5       	ldi	r25, 0x50	; 80
 1e2:	90 93 bb 00 	sts	0x00BB, r25
 1e6:	94 e8       	ldi	r25, 0x84	; 132
 1e8:	90 93 bc 00 	sts	0x00BC, r25
 1ec:	ec eb       	ldi	r30, 0xBC	; 188
 1ee:	f0 e0       	ldi	r31, 0x00	; 0
 1f0:	90 81       	ld	r25, Z
 1f2:	99 23       	and	r25, r25
 1f4:	ec f7       	brge	.-6      	; 0x1f0 <m_rf_open+0x30>
 1f6:	90 91 b9 00 	lds	r25, 0x00B9
 1fa:	98 7f       	andi	r25, 0xF8	; 248
 1fc:	90 32       	cpi	r25, 0x20	; 32
 1fe:	29 f4       	brne	.+10     	; 0x20a <m_rf_open+0x4a>
 200:	84 e9       	ldi	r24, 0x94	; 148
 202:	80 93 bc 00 	sts	0x00BC, r24
 206:	80 e0       	ldi	r24, 0x00	; 0
 208:	2d c0       	rjmp	.+90     	; 0x264 <m_rf_open+0xa4>
 20a:	81 e0       	ldi	r24, 0x01	; 1
 20c:	80 93 bb 00 	sts	0x00BB, r24
 210:	84 e8       	ldi	r24, 0x84	; 132
 212:	80 93 bc 00 	sts	0x00BC, r24
 216:	ec eb       	ldi	r30, 0xBC	; 188
 218:	f0 e0       	ldi	r31, 0x00	; 0
 21a:	90 81       	ld	r25, Z
 21c:	99 23       	and	r25, r25
 21e:	ec f7       	brge	.-6      	; 0x21a <m_rf_open+0x5a>
 220:	10 93 bb 00 	sts	0x00BB, r17
 224:	84 e8       	ldi	r24, 0x84	; 132
 226:	80 93 bc 00 	sts	0x00BC, r24
 22a:	ec eb       	ldi	r30, 0xBC	; 188
 22c:	f0 e0       	ldi	r31, 0x00	; 0
 22e:	80 81       	ld	r24, Z
 230:	88 23       	and	r24, r24
 232:	ec f7       	brge	.-6      	; 0x22e <m_rf_open+0x6e>
 234:	d0 93 bb 00 	sts	0x00BB, r29
 238:	84 e8       	ldi	r24, 0x84	; 132
 23a:	80 93 bc 00 	sts	0x00BC, r24
 23e:	ec eb       	ldi	r30, 0xBC	; 188
 240:	f0 e0       	ldi	r31, 0x00	; 0
 242:	80 81       	ld	r24, Z
 244:	88 23       	and	r24, r24
 246:	ec f7       	brge	.-6      	; 0x242 <m_rf_open+0x82>
 248:	c0 93 bb 00 	sts	0x00BB, r28
 24c:	84 e8       	ldi	r24, 0x84	; 132
 24e:	80 93 bc 00 	sts	0x00BC, r24
 252:	ec eb       	ldi	r30, 0xBC	; 188
 254:	f0 e0       	ldi	r31, 0x00	; 0
 256:	80 81       	ld	r24, Z
 258:	88 23       	and	r24, r24
 25a:	ec f7       	brge	.-6      	; 0x256 <m_rf_open+0x96>
 25c:	84 e9       	ldi	r24, 0x94	; 148
 25e:	80 93 bc 00 	sts	0x00BC, r24
 262:	81 e0       	ldi	r24, 0x01	; 1
 264:	df 91       	pop	r29
 266:	cf 91       	pop	r28
 268:	1f 91       	pop	r17
 26a:	08 95       	ret

0000026c <m_rf_read>:
 26c:	cf 93       	push	r28
 26e:	df 93       	push	r29
 270:	24 ea       	ldi	r18, 0xA4	; 164
 272:	20 93 bc 00 	sts	0x00BC, r18
 276:	ec eb       	ldi	r30, 0xBC	; 188
 278:	f0 e0       	ldi	r31, 0x00	; 0
 27a:	20 81       	ld	r18, Z
 27c:	22 23       	and	r18, r18
 27e:	ec f7       	brge	.-6      	; 0x27a <m_rf_read+0xe>
 280:	21 e5       	ldi	r18, 0x51	; 81
 282:	20 93 bb 00 	sts	0x00BB, r18
 286:	24 e8       	ldi	r18, 0x84	; 132
 288:	20 93 bc 00 	sts	0x00BC, r18
 28c:	ec eb       	ldi	r30, 0xBC	; 188
 28e:	f0 e0       	ldi	r31, 0x00	; 0
 290:	20 81       	ld	r18, Z
 292:	22 23       	and	r18, r18
 294:	ec f7       	brge	.-6      	; 0x290 <m_rf_read+0x24>
 296:	20 91 b9 00 	lds	r18, 0x00B9
 29a:	28 7f       	andi	r18, 0xF8	; 248
 29c:	28 34       	cpi	r18, 0x48	; 72
 29e:	29 f4       	brne	.+10     	; 0x2aa <m_rf_read+0x3e>
 2a0:	84 e9       	ldi	r24, 0x94	; 148
 2a2:	80 93 bc 00 	sts	0x00BC, r24
 2a6:	80 e0       	ldi	r24, 0x00	; 0
 2a8:	3f c0       	rjmp	.+126    	; 0x328 <m_rf_read+0xbc>
 2aa:	24 ec       	ldi	r18, 0xC4	; 196
 2ac:	20 93 bc 00 	sts	0x00BC, r18
 2b0:	ec eb       	ldi	r30, 0xBC	; 188
 2b2:	f0 e0       	ldi	r31, 0x00	; 0
 2b4:	20 81       	ld	r18, Z
 2b6:	22 23       	and	r18, r18
 2b8:	ec f7       	brge	.-6      	; 0x2b4 <m_rf_read+0x48>
 2ba:	40 91 bb 00 	lds	r20, 0x00BB
 2be:	46 13       	cpse	r20, r22
 2c0:	09 c0       	rjmp	.+18     	; 0x2d4 <m_rf_read+0x68>
 2c2:	50 e0       	ldi	r21, 0x00	; 0
 2c4:	41 50       	subi	r20, 0x01	; 1
 2c6:	51 09       	sbc	r21, r1
 2c8:	14 16       	cp	r1, r20
 2ca:	15 06       	cpc	r1, r21
 2cc:	44 f0       	brlt	.+16     	; 0x2de <m_rf_read+0x72>
 2ce:	40 e0       	ldi	r20, 0x00	; 0
 2d0:	50 e0       	ldi	r21, 0x00	; 0
 2d2:	18 c0       	rjmp	.+48     	; 0x304 <m_rf_read+0x98>
 2d4:	84 e9       	ldi	r24, 0x94	; 148
 2d6:	80 93 bc 00 	sts	0x00BC, r24
 2da:	80 e0       	ldi	r24, 0x00	; 0
 2dc:	25 c0       	rjmp	.+74     	; 0x328 <m_rf_read+0xbc>
 2de:	dc 01       	movw	r26, r24
 2e0:	20 e0       	ldi	r18, 0x00	; 0
 2e2:	30 e0       	ldi	r19, 0x00	; 0
 2e4:	ec eb       	ldi	r30, 0xBC	; 188
 2e6:	f0 e0       	ldi	r31, 0x00	; 0
 2e8:	74 ec       	ldi	r23, 0xC4	; 196
 2ea:	cb eb       	ldi	r28, 0xBB	; 187
 2ec:	d0 e0       	ldi	r29, 0x00	; 0
 2ee:	70 83       	st	Z, r23
 2f0:	60 81       	ld	r22, Z
 2f2:	66 23       	and	r22, r22
 2f4:	ec f7       	brge	.-6      	; 0x2f0 <m_rf_read+0x84>
 2f6:	68 81       	ld	r22, Y
 2f8:	6d 93       	st	X+, r22
 2fa:	2f 5f       	subi	r18, 0xFF	; 255
 2fc:	3f 4f       	sbci	r19, 0xFF	; 255
 2fe:	24 17       	cp	r18, r20
 300:	35 07       	cpc	r19, r21
 302:	ac f3       	brlt	.-22     	; 0x2ee <m_rf_read+0x82>
 304:	24 e8       	ldi	r18, 0x84	; 132
 306:	20 93 bc 00 	sts	0x00BC, r18
 30a:	ec eb       	ldi	r30, 0xBC	; 188
 30c:	f0 e0       	ldi	r31, 0x00	; 0
 30e:	20 81       	ld	r18, Z
 310:	22 23       	and	r18, r18
 312:	ec f7       	brge	.-6      	; 0x30e <m_rf_read+0xa2>
 314:	20 91 bb 00 	lds	r18, 0x00BB
 318:	fc 01       	movw	r30, r24
 31a:	e4 0f       	add	r30, r20
 31c:	f5 1f       	adc	r31, r21
 31e:	20 83       	st	Z, r18
 320:	84 e9       	ldi	r24, 0x94	; 148
 322:	80 93 bc 00 	sts	0x00BC, r24
 326:	81 e0       	ldi	r24, 0x01	; 1
 328:	df 91       	pop	r29
 32a:	cf 91       	pop	r28
 32c:	08 95       	ret

0000032e <m_usb_init>:
 32e:	81 e0       	ldi	r24, 0x01	; 1
 330:	80 93 d7 00 	sts	0x00D7, r24
 334:	80 ea       	ldi	r24, 0xA0	; 160
 336:	80 93 d8 00 	sts	0x00D8, r24
 33a:	82 e1       	ldi	r24, 0x12	; 18
 33c:	89 bd       	out	0x29, r24	; 41
 33e:	09 b4       	in	r0, 0x29	; 41
 340:	00 fe       	sbrs	r0, 0
 342:	fd cf       	rjmp	.-6      	; 0x33e <m_usb_init+0x10>
 344:	80 e9       	ldi	r24, 0x90	; 144
 346:	80 93 d8 00 	sts	0x00D8, r24
 34a:	10 92 e0 00 	sts	0x00E0, r1
 34e:	10 92 09 01 	sts	0x0109, r1
 352:	10 92 0a 01 	sts	0x010A, r1
 356:	8c e0       	ldi	r24, 0x0C	; 12
 358:	80 93 e2 00 	sts	0x00E2, r24
 35c:	78 94       	sei
 35e:	08 95       	ret

00000360 <m_usb_rx_char>:
 360:	9f b7       	in	r25, 0x3f	; 63
 362:	f8 94       	cli
 364:	80 91 09 01 	lds	r24, 0x0109
 368:	81 11       	cpse	r24, r1
 36a:	03 c0       	rjmp	.+6      	; 0x372 <m_usb_rx_char+0x12>
 36c:	9f bf       	out	0x3f, r25	; 63
 36e:	8f ef       	ldi	r24, 0xFF	; 255
 370:	08 95       	ret
 372:	83 e0       	ldi	r24, 0x03	; 3
 374:	80 93 e9 00 	sts	0x00E9, r24
 378:	80 91 e8 00 	lds	r24, 0x00E8
 37c:	85 fd       	sbrc	r24, 5
 37e:	03 c0       	rjmp	.+6      	; 0x386 <m_usb_rx_char+0x26>
 380:	9f bf       	out	0x3f, r25	; 63
 382:	8f ef       	ldi	r24, 0xFF	; 255
 384:	08 95       	ret
 386:	80 91 f1 00 	lds	r24, 0x00F1
 38a:	20 91 e8 00 	lds	r18, 0x00E8
 38e:	25 fd       	sbrc	r18, 5
 390:	03 c0       	rjmp	.+6      	; 0x398 <m_usb_rx_char+0x38>
 392:	2b e6       	ldi	r18, 0x6B	; 107
 394:	20 93 e8 00 	sts	0x00E8, r18
 398:	9f bf       	out	0x3f, r25	; 63
 39a:	08 95       	ret

0000039c <m_usb_rx_flush>:
 39c:	80 91 09 01 	lds	r24, 0x0109
 3a0:	88 23       	and	r24, r24
 3a2:	89 f0       	breq	.+34     	; 0x3c6 <m_usb_rx_flush+0x2a>
 3a4:	2f b7       	in	r18, 0x3f	; 63
 3a6:	f8 94       	cli
 3a8:	83 e0       	ldi	r24, 0x03	; 3
 3aa:	80 93 e9 00 	sts	0x00E9, r24
 3ae:	80 91 e8 00 	lds	r24, 0x00E8
 3b2:	85 ff       	sbrs	r24, 5
 3b4:	07 c0       	rjmp	.+14     	; 0x3c4 <m_usb_rx_flush+0x28>
 3b6:	e8 ee       	ldi	r30, 0xE8	; 232
 3b8:	f0 e0       	ldi	r31, 0x00	; 0
 3ba:	9b e6       	ldi	r25, 0x6B	; 107
 3bc:	90 83       	st	Z, r25
 3be:	80 81       	ld	r24, Z
 3c0:	85 fd       	sbrc	r24, 5
 3c2:	fc cf       	rjmp	.-8      	; 0x3bc <m_usb_rx_flush+0x20>
 3c4:	2f bf       	out	0x3f, r18	; 63
 3c6:	08 95       	ret

000003c8 <m_usb_tx_char>:
 3c8:	cf 93       	push	r28
 3ca:	df 93       	push	r29
 3cc:	90 91 09 01 	lds	r25, 0x0109
 3d0:	99 23       	and	r25, r25
 3d2:	09 f4       	brne	.+2      	; 0x3d6 <m_usb_tx_char+0xe>
 3d4:	4d c0       	rjmp	.+154    	; 0x470 <m_usb_tx_char+0xa8>
 3d6:	9f b7       	in	r25, 0x3f	; 63
 3d8:	f8 94       	cli
 3da:	24 e0       	ldi	r18, 0x04	; 4
 3dc:	20 93 e9 00 	sts	0x00E9, r18
 3e0:	20 91 0b 01 	lds	r18, 0x010B
 3e4:	22 23       	and	r18, r18
 3e6:	49 f0       	breq	.+18     	; 0x3fa <m_usb_tx_char+0x32>
 3e8:	20 91 e8 00 	lds	r18, 0x00E8
 3ec:	25 fd       	sbrc	r18, 5
 3ee:	03 c0       	rjmp	.+6      	; 0x3f6 <m_usb_tx_char+0x2e>
 3f0:	9f bf       	out	0x3f, r25	; 63
 3f2:	8f ef       	ldi	r24, 0xFF	; 255
 3f4:	42 c0       	rjmp	.+132    	; 0x47a <m_usb_tx_char+0xb2>
 3f6:	10 92 0b 01 	sts	0x010B, r1
 3fa:	30 91 e4 00 	lds	r19, 0x00E4
 3fe:	37 5e       	subi	r19, 0xE7	; 231
 400:	20 91 e8 00 	lds	r18, 0x00E8
 404:	25 fd       	sbrc	r18, 5
 406:	25 c0       	rjmp	.+74     	; 0x452 <m_usb_tx_char+0x8a>
 408:	9f bf       	out	0x3f, r25	; 63
 40a:	90 91 e4 00 	lds	r25, 0x00E4
 40e:	93 17       	cp	r25, r19
 410:	49 f0       	breq	.+18     	; 0x424 <m_usb_tx_char+0x5c>
 412:	90 91 09 01 	lds	r25, 0x0109
 416:	91 11       	cpse	r25, r1
 418:	0f c0       	rjmp	.+30     	; 0x438 <m_usb_tx_char+0x70>
 41a:	2c c0       	rjmp	.+88     	; 0x474 <m_usb_tx_char+0xac>
 41c:	9f bf       	out	0x3f, r25	; 63
 41e:	98 81       	ld	r25, Y
 420:	93 13       	cpse	r25, r19
 422:	05 c0       	rjmp	.+10     	; 0x42e <m_usb_tx_char+0x66>
 424:	81 e0       	ldi	r24, 0x01	; 1
 426:	80 93 0b 01 	sts	0x010B, r24
 42a:	8f ef       	ldi	r24, 0xFF	; 255
 42c:	26 c0       	rjmp	.+76     	; 0x47a <m_usb_tx_char+0xb2>
 42e:	90 91 09 01 	lds	r25, 0x0109
 432:	91 11       	cpse	r25, r1
 434:	08 c0       	rjmp	.+16     	; 0x446 <m_usb_tx_char+0x7e>
 436:	20 c0       	rjmp	.+64     	; 0x478 <m_usb_tx_char+0xb0>
 438:	a9 ee       	ldi	r26, 0xE9	; 233
 43a:	b0 e0       	ldi	r27, 0x00	; 0
 43c:	44 e0       	ldi	r20, 0x04	; 4
 43e:	e8 ee       	ldi	r30, 0xE8	; 232
 440:	f0 e0       	ldi	r31, 0x00	; 0
 442:	c4 ee       	ldi	r28, 0xE4	; 228
 444:	d0 e0       	ldi	r29, 0x00	; 0
 446:	9f b7       	in	r25, 0x3f	; 63
 448:	f8 94       	cli
 44a:	4c 93       	st	X, r20
 44c:	20 81       	ld	r18, Z
 44e:	25 ff       	sbrs	r18, 5
 450:	e5 cf       	rjmp	.-54     	; 0x41c <m_usb_tx_char+0x54>
 452:	80 93 f1 00 	sts	0x00F1, r24
 456:	80 91 e8 00 	lds	r24, 0x00E8
 45a:	85 fd       	sbrc	r24, 5
 45c:	03 c0       	rjmp	.+6      	; 0x464 <m_usb_tx_char+0x9c>
 45e:	8a e3       	ldi	r24, 0x3A	; 58
 460:	80 93 e8 00 	sts	0x00E8, r24
 464:	85 e0       	ldi	r24, 0x05	; 5
 466:	80 93 08 01 	sts	0x0108, r24
 46a:	9f bf       	out	0x3f, r25	; 63
 46c:	80 e0       	ldi	r24, 0x00	; 0
 46e:	05 c0       	rjmp	.+10     	; 0x47a <m_usb_tx_char+0xb2>
 470:	8f ef       	ldi	r24, 0xFF	; 255
 472:	03 c0       	rjmp	.+6      	; 0x47a <m_usb_tx_char+0xb2>
 474:	8f ef       	ldi	r24, 0xFF	; 255
 476:	01 c0       	rjmp	.+2      	; 0x47a <m_usb_tx_char+0xb2>
 478:	8f ef       	ldi	r24, 0xFF	; 255
 47a:	df 91       	pop	r29
 47c:	cf 91       	pop	r28
 47e:	08 95       	ret

00000480 <__vector_10>:
 480:	1f 92       	push	r1
 482:	0f 92       	push	r0
 484:	0f b6       	in	r0, 0x3f	; 63
 486:	0f 92       	push	r0
 488:	11 24       	eor	r1, r1
 48a:	8f 93       	push	r24
 48c:	9f 93       	push	r25
 48e:	ef 93       	push	r30
 490:	ff 93       	push	r31
 492:	e1 ee       	ldi	r30, 0xE1	; 225
 494:	f0 e0       	ldi	r31, 0x00	; 0
 496:	80 81       	ld	r24, Z
 498:	10 82       	st	Z, r1
 49a:	83 ff       	sbrs	r24, 3
 49c:	11 c0       	rjmp	.+34     	; 0x4c0 <__vector_10+0x40>
 49e:	10 92 e9 00 	sts	0x00E9, r1
 4a2:	91 e0       	ldi	r25, 0x01	; 1
 4a4:	90 93 eb 00 	sts	0x00EB, r25
 4a8:	10 92 ec 00 	sts	0x00EC, r1
 4ac:	92 e1       	ldi	r25, 0x12	; 18
 4ae:	90 93 ed 00 	sts	0x00ED, r25
 4b2:	98 e0       	ldi	r25, 0x08	; 8
 4b4:	90 93 f0 00 	sts	0x00F0, r25
 4b8:	10 92 09 01 	sts	0x0109, r1
 4bc:	10 92 0a 01 	sts	0x010A, r1
 4c0:	82 ff       	sbrs	r24, 2
 4c2:	13 c0       	rjmp	.+38     	; 0x4ea <__vector_10+0x6a>
 4c4:	80 91 09 01 	lds	r24, 0x0109
 4c8:	88 23       	and	r24, r24
 4ca:	79 f0       	breq	.+30     	; 0x4ea <__vector_10+0x6a>
 4cc:	80 91 08 01 	lds	r24, 0x0108
 4d0:	88 23       	and	r24, r24
 4d2:	59 f0       	breq	.+22     	; 0x4ea <__vector_10+0x6a>
 4d4:	81 50       	subi	r24, 0x01	; 1
 4d6:	80 93 08 01 	sts	0x0108, r24
 4da:	81 11       	cpse	r24, r1
 4dc:	06 c0       	rjmp	.+12     	; 0x4ea <__vector_10+0x6a>
 4de:	84 e0       	ldi	r24, 0x04	; 4
 4e0:	80 93 e9 00 	sts	0x00E9, r24
 4e4:	8a e3       	ldi	r24, 0x3A	; 58
 4e6:	80 93 e8 00 	sts	0x00E8, r24
 4ea:	ff 91       	pop	r31
 4ec:	ef 91       	pop	r30
 4ee:	9f 91       	pop	r25
 4f0:	8f 91       	pop	r24
 4f2:	0f 90       	pop	r0
 4f4:	0f be       	out	0x3f, r0	; 63
 4f6:	0f 90       	pop	r0
 4f8:	1f 90       	pop	r1
 4fa:	18 95       	reti

000004fc <__vector_11>:
 4fc:	1f 92       	push	r1
 4fe:	0f 92       	push	r0
 500:	0f b6       	in	r0, 0x3f	; 63
 502:	0f 92       	push	r0
 504:	11 24       	eor	r1, r1
 506:	0f 93       	push	r16
 508:	1f 93       	push	r17
 50a:	2f 93       	push	r18
 50c:	3f 93       	push	r19
 50e:	4f 93       	push	r20
 510:	5f 93       	push	r21
 512:	6f 93       	push	r22
 514:	7f 93       	push	r23
 516:	8f 93       	push	r24
 518:	9f 93       	push	r25
 51a:	af 93       	push	r26
 51c:	bf 93       	push	r27
 51e:	cf 93       	push	r28
 520:	df 93       	push	r29
 522:	ef 93       	push	r30
 524:	ff 93       	push	r31
 526:	10 92 e9 00 	sts	0x00E9, r1
 52a:	80 91 e8 00 	lds	r24, 0x00E8
 52e:	83 ff       	sbrs	r24, 3
 530:	51 c1       	rjmp	.+674    	; 0x7d4 <__vector_11+0x2d8>
 532:	e1 ef       	ldi	r30, 0xF1	; 241
 534:	f0 e0       	ldi	r31, 0x00	; 0
 536:	70 81       	ld	r23, Z
 538:	40 81       	ld	r20, Z
 53a:	20 81       	ld	r18, Z
 53c:	30 81       	ld	r19, Z
 53e:	93 2f       	mov	r25, r19
 540:	80 e0       	ldi	r24, 0x00	; 0
 542:	dc 01       	movw	r26, r24
 544:	a2 2b       	or	r26, r18
 546:	9d 01       	movw	r18, r26
 548:	50 81       	ld	r21, Z
 54a:	60 81       	ld	r22, Z
 54c:	96 2f       	mov	r25, r22
 54e:	80 e0       	ldi	r24, 0x00	; 0
 550:	85 2b       	or	r24, r21
 552:	a0 81       	ld	r26, Z
 554:	b0 81       	ld	r27, Z
 556:	52 ef       	ldi	r21, 0xF2	; 242
 558:	50 93 e8 00 	sts	0x00E8, r21
 55c:	46 30       	cpi	r20, 0x06	; 6
 55e:	09 f0       	breq	.+2      	; 0x562 <__vector_11+0x66>
 560:	5c c0       	rjmp	.+184    	; 0x61a <__vector_11+0x11e>
 562:	04 c0       	rjmp	.+8      	; 0x56c <__vector_11+0x70>
 564:	81 e2       	ldi	r24, 0x21	; 33
 566:	80 93 eb 00 	sts	0x00EB, r24
 56a:	3b c1       	rjmp	.+630    	; 0x7e2 <__vector_11+0x2e6>
 56c:	c6 e0       	ldi	r28, 0x06	; 6
 56e:	4c ea       	ldi	r20, 0xAC	; 172
 570:	50 e0       	ldi	r21, 0x00	; 0
 572:	fa 01       	movw	r30, r20
 574:	65 91       	lpm	r22, Z+
 576:	74 91       	lpm	r23, Z
 578:	26 17       	cp	r18, r22
 57a:	37 07       	cpc	r19, r23
 57c:	19 f0       	breq	.+6      	; 0x584 <__vector_11+0x88>
 57e:	49 5f       	subi	r20, 0xF9	; 249
 580:	5f 4f       	sbci	r21, 0xFF	; 255
 582:	20 c0       	rjmp	.+64     	; 0x5c4 <__vector_11+0xc8>
 584:	fa 01       	movw	r30, r20
 586:	32 96       	adiw	r30, 0x02	; 2
 588:	65 91       	lpm	r22, Z+
 58a:	74 91       	lpm	r23, Z
 58c:	86 17       	cp	r24, r22
 58e:	97 07       	cpc	r25, r23
 590:	19 f0       	breq	.+6      	; 0x598 <__vector_11+0x9c>
 592:	49 5f       	subi	r20, 0xF9	; 249
 594:	5f 4f       	sbci	r21, 0xFF	; 255
 596:	16 c0       	rjmp	.+44     	; 0x5c4 <__vector_11+0xc8>
 598:	fa 01       	movw	r30, r20
 59a:	34 96       	adiw	r30, 0x04	; 4
 59c:	85 91       	lpm	r24, Z+
 59e:	94 91       	lpm	r25, Z
 5a0:	28 2f       	mov	r18, r24
 5a2:	39 2f       	mov	r19, r25
 5a4:	fa 01       	movw	r30, r20
 5a6:	36 96       	adiw	r30, 0x06	; 6
 5a8:	44 91       	lpm	r20, Z
 5aa:	9b 2f       	mov	r25, r27
 5ac:	80 e0       	ldi	r24, 0x00	; 0
 5ae:	8a 2b       	or	r24, r26
 5b0:	8f 3f       	cpi	r24, 0xFF	; 255
 5b2:	91 05       	cpc	r25, r1
 5b4:	19 f0       	breq	.+6      	; 0x5bc <__vector_11+0xc0>
 5b6:	10 f0       	brcs	.+4      	; 0x5bc <__vector_11+0xc0>
 5b8:	8f ef       	ldi	r24, 0xFF	; 255
 5ba:	90 e0       	ldi	r25, 0x00	; 0
 5bc:	84 17       	cp	r24, r20
 5be:	28 f4       	brcc	.+10     	; 0x5ca <__vector_11+0xce>
 5c0:	48 2f       	mov	r20, r24
 5c2:	03 c0       	rjmp	.+6      	; 0x5ca <__vector_11+0xce>
 5c4:	c1 50       	subi	r28, 0x01	; 1
 5c6:	a9 f6       	brne	.-86     	; 0x572 <__vector_11+0x76>
 5c8:	cd cf       	rjmp	.-102    	; 0x564 <__vector_11+0x68>
 5ca:	c8 ee       	ldi	r28, 0xE8	; 232
 5cc:	d0 e0       	ldi	r29, 0x00	; 0
 5ce:	7e ef       	ldi	r23, 0xFE	; 254
 5d0:	a1 ef       	ldi	r26, 0xF1	; 241
 5d2:	b0 e0       	ldi	r27, 0x00	; 0
 5d4:	10 e1       	ldi	r17, 0x10	; 16
 5d6:	88 81       	ld	r24, Y
 5d8:	98 2f       	mov	r25, r24
 5da:	95 70       	andi	r25, 0x05	; 5
 5dc:	e1 f3       	breq	.-8      	; 0x5d6 <__vector_11+0xda>
 5de:	82 fd       	sbrc	r24, 2
 5e0:	00 c1       	rjmp	.+512    	; 0x7e2 <__vector_11+0x2e6>
 5e2:	64 2f       	mov	r22, r20
 5e4:	41 31       	cpi	r20, 0x11	; 17
 5e6:	08 f0       	brcs	.+2      	; 0x5ea <__vector_11+0xee>
 5e8:	61 2f       	mov	r22, r17
 5ea:	66 23       	and	r22, r22
 5ec:	09 f4       	brne	.+2      	; 0x5f0 <__vector_11+0xf4>
 5ee:	f6 c0       	rjmp	.+492    	; 0x7dc <__vector_11+0x2e0>
 5f0:	c9 01       	movw	r24, r18
 5f2:	56 2f       	mov	r21, r22
 5f4:	fc 01       	movw	r30, r24
 5f6:	01 96       	adiw	r24, 0x01	; 1
 5f8:	e4 91       	lpm	r30, Z
 5fa:	ec 93       	st	X, r30
 5fc:	51 50       	subi	r21, 0x01	; 1
 5fe:	d1 f7       	brne	.-12     	; 0x5f4 <__vector_11+0xf8>
 600:	86 2f       	mov	r24, r22
 602:	81 50       	subi	r24, 0x01	; 1
 604:	90 e0       	ldi	r25, 0x00	; 0
 606:	01 96       	adiw	r24, 0x01	; 1
 608:	28 0f       	add	r18, r24
 60a:	39 1f       	adc	r19, r25
 60c:	46 1b       	sub	r20, r22
 60e:	78 83       	st	Y, r23
 610:	41 11       	cpse	r20, r1
 612:	e1 cf       	rjmp	.-62     	; 0x5d6 <__vector_11+0xda>
 614:	60 31       	cpi	r22, 0x10	; 16
 616:	f9 f2       	breq	.-66     	; 0x5d6 <__vector_11+0xda>
 618:	e4 c0       	rjmp	.+456    	; 0x7e2 <__vector_11+0x2e6>
 61a:	45 30       	cpi	r20, 0x05	; 5
 61c:	61 f4       	brne	.+24     	; 0x636 <__vector_11+0x13a>
 61e:	8e ef       	ldi	r24, 0xFE	; 254
 620:	80 93 e8 00 	sts	0x00E8, r24
 624:	e8 ee       	ldi	r30, 0xE8	; 232
 626:	f0 e0       	ldi	r31, 0x00	; 0
 628:	80 81       	ld	r24, Z
 62a:	80 ff       	sbrs	r24, 0
 62c:	fd cf       	rjmp	.-6      	; 0x628 <__vector_11+0x12c>
 62e:	20 68       	ori	r18, 0x80	; 128
 630:	20 93 e3 00 	sts	0x00E3, r18
 634:	d6 c0       	rjmp	.+428    	; 0x7e2 <__vector_11+0x2e6>
 636:	49 30       	cpi	r20, 0x09	; 9
 638:	a1 f5       	brne	.+104    	; 0x6a2 <__vector_11+0x1a6>
 63a:	71 11       	cpse	r23, r1
 63c:	5b c0       	rjmp	.+182    	; 0x6f4 <__vector_11+0x1f8>
 63e:	20 93 09 01 	sts	0x0109, r18
 642:	10 92 0a 01 	sts	0x010A, r1
 646:	10 92 08 01 	sts	0x0108, r1
 64a:	8e ef       	ldi	r24, 0xFE	; 254
 64c:	80 93 e8 00 	sts	0x00E8, r24
 650:	11 e0       	ldi	r17, 0x01	; 1
 652:	86 ed       	ldi	r24, 0xD6	; 214
 654:	90 e0       	ldi	r25, 0x00	; 0
 656:	c9 ee       	ldi	r28, 0xE9	; 233
 658:	d0 e0       	ldi	r29, 0x00	; 0
 65a:	ab ee       	ldi	r26, 0xEB	; 235
 65c:	b0 e0       	ldi	r27, 0x00	; 0
 65e:	6c ee       	ldi	r22, 0xEC	; 236
 660:	70 e0       	ldi	r23, 0x00	; 0
 662:	4d ee       	ldi	r20, 0xED	; 237
 664:	50 e0       	ldi	r21, 0x00	; 0
 666:	18 83       	st	Y, r17
 668:	9c 01       	movw	r18, r24
 66a:	2f 5f       	subi	r18, 0xFF	; 255
 66c:	3f 4f       	sbci	r19, 0xFF	; 255
 66e:	fc 01       	movw	r30, r24
 670:	04 91       	lpm	r16, Z
 672:	0c 93       	st	X, r16
 674:	00 23       	and	r16, r16
 676:	59 f0       	breq	.+22     	; 0x68e <__vector_11+0x192>
 678:	f9 01       	movw	r30, r18
 67a:	24 91       	lpm	r18, Z
 67c:	fb 01       	movw	r30, r22
 67e:	20 83       	st	Z, r18
 680:	fc 01       	movw	r30, r24
 682:	32 96       	adiw	r30, 0x02	; 2
 684:	03 96       	adiw	r24, 0x03	; 3
 686:	24 91       	lpm	r18, Z
 688:	fa 01       	movw	r30, r20
 68a:	20 83       	st	Z, r18
 68c:	01 c0       	rjmp	.+2      	; 0x690 <__vector_11+0x194>
 68e:	c9 01       	movw	r24, r18
 690:	1f 5f       	subi	r17, 0xFF	; 255
 692:	15 30       	cpi	r17, 0x05	; 5
 694:	41 f7       	brne	.-48     	; 0x666 <__vector_11+0x16a>
 696:	ea ee       	ldi	r30, 0xEA	; 234
 698:	f0 e0       	ldi	r31, 0x00	; 0
 69a:	8e e1       	ldi	r24, 0x1E	; 30
 69c:	80 83       	st	Z, r24
 69e:	10 82       	st	Z, r1
 6a0:	a0 c0       	rjmp	.+320    	; 0x7e2 <__vector_11+0x2e6>
 6a2:	48 30       	cpi	r20, 0x08	; 8
 6a4:	81 f4       	brne	.+32     	; 0x6c6 <__vector_11+0x1ca>
 6a6:	70 38       	cpi	r23, 0x80	; 128
 6a8:	09 f0       	breq	.+2      	; 0x6ac <__vector_11+0x1b0>
 6aa:	3f c0       	rjmp	.+126    	; 0x72a <__vector_11+0x22e>
 6ac:	e8 ee       	ldi	r30, 0xE8	; 232
 6ae:	f0 e0       	ldi	r31, 0x00	; 0
 6b0:	80 81       	ld	r24, Z
 6b2:	80 ff       	sbrs	r24, 0
 6b4:	fd cf       	rjmp	.-6      	; 0x6b0 <__vector_11+0x1b4>
 6b6:	80 91 09 01 	lds	r24, 0x0109
 6ba:	80 93 f1 00 	sts	0x00F1, r24
 6be:	8e ef       	ldi	r24, 0xFE	; 254
 6c0:	80 93 e8 00 	sts	0x00E8, r24
 6c4:	8e c0       	rjmp	.+284    	; 0x7e2 <__vector_11+0x2e6>
 6c6:	41 32       	cpi	r20, 0x21	; 33
 6c8:	a9 f4       	brne	.+42     	; 0x6f4 <__vector_11+0x1f8>
 6ca:	71 3a       	cpi	r23, 0xA1	; 161
 6cc:	f1 f5       	brne	.+124    	; 0x74a <__vector_11+0x24e>
 6ce:	e8 ee       	ldi	r30, 0xE8	; 232
 6d0:	f0 e0       	ldi	r31, 0x00	; 0
 6d2:	80 81       	ld	r24, Z
 6d4:	80 ff       	sbrs	r24, 0
 6d6:	fd cf       	rjmp	.-6      	; 0x6d2 <__vector_11+0x1d6>
 6d8:	e0 e0       	ldi	r30, 0x00	; 0
 6da:	f1 e0       	ldi	r31, 0x01	; 1
 6dc:	a1 ef       	ldi	r26, 0xF1	; 241
 6de:	b0 e0       	ldi	r27, 0x00	; 0
 6e0:	81 91       	ld	r24, Z+
 6e2:	8c 93       	st	X, r24
 6e4:	41 e0       	ldi	r20, 0x01	; 1
 6e6:	e7 30       	cpi	r30, 0x07	; 7
 6e8:	f4 07       	cpc	r31, r20
 6ea:	d1 f7       	brne	.-12     	; 0x6e0 <__vector_11+0x1e4>
 6ec:	8e ef       	ldi	r24, 0xFE	; 254
 6ee:	80 93 e8 00 	sts	0x00E8, r24
 6f2:	77 c0       	rjmp	.+238    	; 0x7e2 <__vector_11+0x2e6>
 6f4:	40 32       	cpi	r20, 0x20	; 32
 6f6:	c9 f4       	brne	.+50     	; 0x72a <__vector_11+0x22e>
 6f8:	71 32       	cpi	r23, 0x21	; 33
 6fa:	09 f0       	breq	.+2      	; 0x6fe <__vector_11+0x202>
 6fc:	6b c0       	rjmp	.+214    	; 0x7d4 <__vector_11+0x2d8>
 6fe:	e8 ee       	ldi	r30, 0xE8	; 232
 700:	f0 e0       	ldi	r31, 0x00	; 0
 702:	80 81       	ld	r24, Z
 704:	82 ff       	sbrs	r24, 2
 706:	fd cf       	rjmp	.-6      	; 0x702 <__vector_11+0x206>
 708:	e0 e0       	ldi	r30, 0x00	; 0
 70a:	f1 e0       	ldi	r31, 0x01	; 1
 70c:	a1 ef       	ldi	r26, 0xF1	; 241
 70e:	b0 e0       	ldi	r27, 0x00	; 0
 710:	8c 91       	ld	r24, X
 712:	81 93       	st	Z+, r24
 714:	51 e0       	ldi	r21, 0x01	; 1
 716:	e7 30       	cpi	r30, 0x07	; 7
 718:	f5 07       	cpc	r31, r21
 71a:	d1 f7       	brne	.-12     	; 0x710 <__vector_11+0x214>
 71c:	e8 ee       	ldi	r30, 0xE8	; 232
 71e:	f0 e0       	ldi	r31, 0x00	; 0
 720:	8b ef       	ldi	r24, 0xFB	; 251
 722:	80 83       	st	Z, r24
 724:	8e ef       	ldi	r24, 0xFE	; 254
 726:	80 83       	st	Z, r24
 728:	5c c0       	rjmp	.+184    	; 0x7e2 <__vector_11+0x2e6>
 72a:	42 32       	cpi	r20, 0x22	; 34
 72c:	71 f4       	brne	.+28     	; 0x74a <__vector_11+0x24e>
 72e:	71 32       	cpi	r23, 0x21	; 33
 730:	09 f0       	breq	.+2      	; 0x734 <__vector_11+0x238>
 732:	50 c0       	rjmp	.+160    	; 0x7d4 <__vector_11+0x2d8>
 734:	20 93 0a 01 	sts	0x010A, r18
 738:	e8 ee       	ldi	r30, 0xE8	; 232
 73a:	f0 e0       	ldi	r31, 0x00	; 0
 73c:	80 81       	ld	r24, Z
 73e:	80 ff       	sbrs	r24, 0
 740:	fd cf       	rjmp	.-6      	; 0x73c <__vector_11+0x240>
 742:	8e ef       	ldi	r24, 0xFE	; 254
 744:	80 93 e8 00 	sts	0x00E8, r24
 748:	4c c0       	rjmp	.+152    	; 0x7e2 <__vector_11+0x2e6>
 74a:	41 11       	cpse	r20, r1
 74c:	1a c0       	rjmp	.+52     	; 0x782 <__vector_11+0x286>
 74e:	e8 ee       	ldi	r30, 0xE8	; 232
 750:	f0 e0       	ldi	r31, 0x00	; 0
 752:	20 81       	ld	r18, Z
 754:	20 ff       	sbrs	r18, 0
 756:	fd cf       	rjmp	.-6      	; 0x752 <__vector_11+0x256>
 758:	72 38       	cpi	r23, 0x82	; 130
 75a:	51 f4       	brne	.+20     	; 0x770 <__vector_11+0x274>
 75c:	e9 ee       	ldi	r30, 0xE9	; 233
 75e:	f0 e0       	ldi	r31, 0x00	; 0
 760:	80 83       	st	Z, r24
 762:	80 91 eb 00 	lds	r24, 0x00EB
 766:	85 fb       	bst	r24, 5
 768:	88 27       	eor	r24, r24
 76a:	80 f9       	bld	r24, 0
 76c:	10 82       	st	Z, r1
 76e:	01 c0       	rjmp	.+2      	; 0x772 <__vector_11+0x276>
 770:	80 e0       	ldi	r24, 0x00	; 0
 772:	e1 ef       	ldi	r30, 0xF1	; 241
 774:	f0 e0       	ldi	r31, 0x00	; 0
 776:	80 83       	st	Z, r24
 778:	10 82       	st	Z, r1
 77a:	8e ef       	ldi	r24, 0xFE	; 254
 77c:	80 93 e8 00 	sts	0x00E8, r24
 780:	30 c0       	rjmp	.+96     	; 0x7e2 <__vector_11+0x2e6>
 782:	41 30       	cpi	r20, 0x01	; 1
 784:	11 f0       	breq	.+4      	; 0x78a <__vector_11+0x28e>
 786:	43 30       	cpi	r20, 0x03	; 3
 788:	29 f5       	brne	.+74     	; 0x7d4 <__vector_11+0x2d8>
 78a:	72 30       	cpi	r23, 0x02	; 2
 78c:	19 f5       	brne	.+70     	; 0x7d4 <__vector_11+0x2d8>
 78e:	23 2b       	or	r18, r19
 790:	09 f5       	brne	.+66     	; 0x7d4 <__vector_11+0x2d8>
 792:	8f 77       	andi	r24, 0x7F	; 127
 794:	99 27       	eor	r25, r25
 796:	38 2f       	mov	r19, r24
 798:	31 50       	subi	r19, 0x01	; 1
 79a:	34 30       	cpi	r19, 0x04	; 4
 79c:	d8 f4       	brcc	.+54     	; 0x7d4 <__vector_11+0x2d8>
 79e:	3e ef       	ldi	r19, 0xFE	; 254
 7a0:	30 93 e8 00 	sts	0x00E8, r19
 7a4:	80 93 e9 00 	sts	0x00E9, r24
 7a8:	43 30       	cpi	r20, 0x03	; 3
 7aa:	21 f4       	brne	.+8      	; 0x7b4 <__vector_11+0x2b8>
 7ac:	81 e2       	ldi	r24, 0x21	; 33
 7ae:	80 93 eb 00 	sts	0x00EB, r24
 7b2:	17 c0       	rjmp	.+46     	; 0x7e2 <__vector_11+0x2e6>
 7b4:	99 e1       	ldi	r25, 0x19	; 25
 7b6:	90 93 eb 00 	sts	0x00EB, r25
 7ba:	21 e0       	ldi	r18, 0x01	; 1
 7bc:	30 e0       	ldi	r19, 0x00	; 0
 7be:	d9 01       	movw	r26, r18
 7c0:	02 c0       	rjmp	.+4      	; 0x7c6 <__vector_11+0x2ca>
 7c2:	aa 0f       	add	r26, r26
 7c4:	bb 1f       	adc	r27, r27
 7c6:	8a 95       	dec	r24
 7c8:	e2 f7       	brpl	.-8      	; 0x7c2 <__vector_11+0x2c6>
 7ca:	ea ee       	ldi	r30, 0xEA	; 234
 7cc:	f0 e0       	ldi	r31, 0x00	; 0
 7ce:	a0 83       	st	Z, r26
 7d0:	10 82       	st	Z, r1
 7d2:	07 c0       	rjmp	.+14     	; 0x7e2 <__vector_11+0x2e6>
 7d4:	81 e2       	ldi	r24, 0x21	; 33
 7d6:	80 93 eb 00 	sts	0x00EB, r24
 7da:	03 c0       	rjmp	.+6      	; 0x7e2 <__vector_11+0x2e6>
 7dc:	78 83       	st	Y, r23
 7de:	41 11       	cpse	r20, r1
 7e0:	fa ce       	rjmp	.-524    	; 0x5d6 <__vector_11+0xda>
 7e2:	ff 91       	pop	r31
 7e4:	ef 91       	pop	r30
 7e6:	df 91       	pop	r29
 7e8:	cf 91       	pop	r28
 7ea:	bf 91       	pop	r27
 7ec:	af 91       	pop	r26
 7ee:	9f 91       	pop	r25
 7f0:	8f 91       	pop	r24
 7f2:	7f 91       	pop	r23
 7f4:	6f 91       	pop	r22
 7f6:	5f 91       	pop	r21
 7f8:	4f 91       	pop	r20
 7fa:	3f 91       	pop	r19
 7fc:	2f 91       	pop	r18
 7fe:	1f 91       	pop	r17
 800:	0f 91       	pop	r16
 802:	0f 90       	pop	r0
 804:	0f be       	out	0x3f, r0	; 63
 806:	0f 90       	pop	r0
 808:	1f 90       	pop	r1
 80a:	18 95       	reti

0000080c <m_usb_tx_int>:
 80c:	ef 92       	push	r14
 80e:	ff 92       	push	r15
 810:	0f 93       	push	r16
 812:	1f 93       	push	r17
 814:	cf 93       	push	r28
 816:	df 93       	push	r29
 818:	cd b7       	in	r28, 0x3d	; 61
 81a:	de b7       	in	r29, 0x3e	; 62
 81c:	27 97       	sbiw	r28, 0x07	; 7
 81e:	0f b6       	in	r0, 0x3f	; 63
 820:	f8 94       	cli
 822:	de bf       	out	0x3e, r29	; 62
 824:	0f be       	out	0x3f, r0	; 63
 826:	cd bf       	out	0x3d, r28	; 61
 828:	8e 01       	movw	r16, r28
 82a:	0f 5f       	subi	r16, 0xFF	; 255
 82c:	1f 4f       	sbci	r17, 0xFF	; 255
 82e:	27 e0       	ldi	r18, 0x07	; 7
 830:	f8 01       	movw	r30, r16
 832:	11 92       	st	Z+, r1
 834:	2a 95       	dec	r18
 836:	e9 f7       	brne	.-6      	; 0x832 <m_usb_tx_int+0x26>
 838:	4a e0       	ldi	r20, 0x0A	; 10
 83a:	50 e0       	ldi	r21, 0x00	; 0
 83c:	b8 01       	movw	r22, r16
 83e:	0e 94 aa 04 	call	0x954	; 0x954 <itoa>
 842:	7e 01       	movw	r14, r28
 844:	f8 e0       	ldi	r31, 0x08	; 8
 846:	ef 0e       	add	r14, r31
 848:	f1 1c       	adc	r15, r1
 84a:	f8 01       	movw	r30, r16
 84c:	81 91       	ld	r24, Z+
 84e:	8f 01       	movw	r16, r30
 850:	81 11       	cpse	r24, r1
 852:	0e 94 e4 01 	call	0x3c8	; 0x3c8 <m_usb_tx_char>
 856:	0e 15       	cp	r16, r14
 858:	1f 05       	cpc	r17, r15
 85a:	b9 f7       	brne	.-18     	; 0x84a <m_usb_tx_int+0x3e>
 85c:	27 96       	adiw	r28, 0x07	; 7
 85e:	0f b6       	in	r0, 0x3f	; 63
 860:	f8 94       	cli
 862:	de bf       	out	0x3e, r29	; 62
 864:	0f be       	out	0x3f, r0	; 63
 866:	cd bf       	out	0x3d, r28	; 61
 868:	df 91       	pop	r29
 86a:	cf 91       	pop	r28
 86c:	1f 91       	pop	r17
 86e:	0f 91       	pop	r16
 870:	ff 90       	pop	r15
 872:	ef 90       	pop	r14
 874:	08 95       	ret

00000876 <main>:

int main(void)
{

	//m_bus_init();
	m_rf_open(CHANNEL, ADDRESS, PACKET_LENGTH);
 876:	43 e0       	ldi	r20, 0x03	; 3
 878:	6f ef       	ldi	r22, 0xFF	; 255
 87a:	81 e0       	ldi	r24, 0x01	; 1
 87c:	0e 94 e0 00 	call	0x1c0	; 0x1c0 <m_rf_open>
	m_usb_init();
 880:	0e 94 97 01 	call	0x32e	; 0x32e <m_usb_init>

	int counter = 0;

	char rx_buffer;

	sei();
 884:	78 94       	sei
 886:	0f 2e       	mov	r0, r31
 888:	fe e0       	ldi	r31, 0x0E	; 14
 88a:	ef 2e       	mov	r14, r31
 88c:	f1 e0       	ldi	r31, 0x01	; 1
 88e:	ff 2e       	mov	r15, r31
 890:	f0 2d       	mov	r31, r0

volatile int flag = 0;

char array[3] = {0, 0, 0};

int main(void)
 892:	01 e1       	ldi	r16, 0x11	; 17
 894:	11 e0       	ldi	r17, 0x01	; 1
	
	
	
	while(1)
	{
		if (flag == 1) {
 896:	80 91 0c 01 	lds	r24, 0x010C
 89a:	90 91 0d 01 	lds	r25, 0x010D
 89e:	01 97       	sbiw	r24, 0x01	; 1
 8a0:	d1 f7       	brne	.-12     	; 0x896 <main+0x20>
			//m_green(TOGGLE);
			
			//while(!m_usb_rx_available());  	//wait for an indication from the computer
			rx_buffer = m_usb_rx_char();  	//grab the computer packet
 8a2:	0e 94 b0 01 	call	0x360	; 0x360 <m_usb_rx_char>
 8a6:	c8 2f       	mov	r28, r24

			m_usb_rx_flush();  				//clear buffer
 8a8:	0e 94 ce 01 	call	0x39c	; 0x39c <m_usb_rx_flush>

			if(rx_buffer == 1) {  			//computer wants ir buffer
 8ac:	c1 30       	cpi	r28, 0x01	; 1
 8ae:	71 f4       	brne	.+28     	; 0x8cc <main+0x56>
 8b0:	e7 01       	movw	r28, r14
				//write ir buffer as concatenated hex:  i.e. f0f1f4f5

				for (int i = 0 ; i < 3 ; i++){
					m_usb_tx_int((int)array[i]);
 8b2:	89 91       	ld	r24, Y+
 8b4:	90 e0       	ldi	r25, 0x00	; 0
 8b6:	0e 94 06 04 	call	0x80c	; 0x80c <m_usb_tx_int>
					m_usb_tx_char('\t');
 8ba:	89 e0       	ldi	r24, 0x09	; 9
 8bc:	0e 94 e4 01 	call	0x3c8	; 0x3c8 <m_usb_tx_char>
			m_usb_rx_flush();  				//clear buffer

			if(rx_buffer == 1) {  			//computer wants ir buffer
				//write ir buffer as concatenated hex:  i.e. f0f1f4f5

				for (int i = 0 ; i < 3 ; i++){
 8c0:	c0 17       	cp	r28, r16
 8c2:	d1 07       	cpc	r29, r17
 8c4:	b1 f7       	brne	.-20     	; 0x8b2 <main+0x3c>
					m_usb_tx_int((int)array[i]);
					m_usb_tx_char('\t');

				}

				m_usb_tx_char('\n');  //MATLAB serial command reads 1 line at a time
 8c6:	8a e0       	ldi	r24, 0x0A	; 10
 8c8:	0e 94 e4 01 	call	0x3c8	; 0x3c8 <m_usb_tx_char>
			}
			flag = 0;
 8cc:	10 92 0d 01 	sts	0x010D, r1
 8d0:	10 92 0c 01 	sts	0x010C, r1
 8d4:	e0 cf       	rjmp	.-64     	; 0x896 <main+0x20>

000008d6 <__vector_3>:
		}
		
	}
}

ISR(INT2_vect){
 8d6:	1f 92       	push	r1
 8d8:	0f 92       	push	r0
 8da:	0f b6       	in	r0, 0x3f	; 63
 8dc:	0f 92       	push	r0
 8de:	11 24       	eor	r1, r1
 8e0:	2f 93       	push	r18
 8e2:	3f 93       	push	r19
 8e4:	4f 93       	push	r20
 8e6:	5f 93       	push	r21
 8e8:	6f 93       	push	r22
 8ea:	7f 93       	push	r23
 8ec:	8f 93       	push	r24
 8ee:	9f 93       	push	r25
 8f0:	af 93       	push	r26
 8f2:	bf 93       	push	r27
 8f4:	ef 93       	push	r30
 8f6:	ff 93       	push	r31
	cli();
 8f8:	f8 94       	cli
	m_green(TOGGLE);
 8fa:	6a 9a       	sbi	0x0d, 2	; 13
 8fc:	9e b1       	in	r25, 0x0e	; 14
 8fe:	84 e0       	ldi	r24, 0x04	; 4
 900:	89 27       	eor	r24, r25
 902:	8e b9       	out	0x0e, r24	; 14
	if (flag == 0) {
 904:	80 91 0c 01 	lds	r24, 0x010C
 908:	90 91 0d 01 	lds	r25, 0x010D
 90c:	89 2b       	or	r24, r25
 90e:	81 f4       	brne	.+32     	; 0x930 <__vector_3+0x5a>
	m_rf_read(array,3);
 910:	63 e0       	ldi	r22, 0x03	; 3
 912:	8e e0       	ldi	r24, 0x0E	; 14
 914:	91 e0       	ldi	r25, 0x01	; 1
 916:	0e 94 36 01 	call	0x26c	; 0x26c <m_rf_read>
	m_red(TOGGLE);
 91a:	6e 9a       	sbi	0x0d, 6	; 13
 91c:	9e b1       	in	r25, 0x0e	; 14
 91e:	80 e4       	ldi	r24, 0x40	; 64
 920:	89 27       	eor	r24, r25
 922:	8e b9       	out	0x0e, r24	; 14
	flag = 1;
 924:	81 e0       	ldi	r24, 0x01	; 1
 926:	90 e0       	ldi	r25, 0x00	; 0
 928:	90 93 0d 01 	sts	0x010D, r25
 92c:	80 93 0c 01 	sts	0x010C, r24
	}
	sei();
 930:	78 94       	sei
}
 932:	ff 91       	pop	r31
 934:	ef 91       	pop	r30
 936:	bf 91       	pop	r27
 938:	af 91       	pop	r26
 93a:	9f 91       	pop	r25
 93c:	8f 91       	pop	r24
 93e:	7f 91       	pop	r23
 940:	6f 91       	pop	r22
 942:	5f 91       	pop	r21
 944:	4f 91       	pop	r20
 946:	3f 91       	pop	r19
 948:	2f 91       	pop	r18
 94a:	0f 90       	pop	r0
 94c:	0f be       	out	0x3f, r0	; 63
 94e:	0f 90       	pop	r0
 950:	1f 90       	pop	r1
 952:	18 95       	reti

00000954 <itoa>:
 954:	fb 01       	movw	r30, r22
 956:	9f 01       	movw	r18, r30
 958:	e8 94       	clt
 95a:	42 30       	cpi	r20, 0x02	; 2
 95c:	c4 f0       	brlt	.+48     	; 0x98e <itoa+0x3a>
 95e:	45 32       	cpi	r20, 0x25	; 37
 960:	b4 f4       	brge	.+44     	; 0x98e <itoa+0x3a>
 962:	4a 30       	cpi	r20, 0x0A	; 10
 964:	29 f4       	brne	.+10     	; 0x970 <itoa+0x1c>
 966:	97 fb       	bst	r25, 7
 968:	1e f4       	brtc	.+6      	; 0x970 <itoa+0x1c>
 96a:	90 95       	com	r25
 96c:	81 95       	neg	r24
 96e:	9f 4f       	sbci	r25, 0xFF	; 255
 970:	64 2f       	mov	r22, r20
 972:	77 27       	eor	r23, r23
 974:	0e 94 db 04 	call	0x9b6	; 0x9b6 <__udivmodhi4>
 978:	80 5d       	subi	r24, 0xD0	; 208
 97a:	8a 33       	cpi	r24, 0x3A	; 58
 97c:	0c f0       	brlt	.+2      	; 0x980 <itoa+0x2c>
 97e:	89 5d       	subi	r24, 0xD9	; 217
 980:	81 93       	st	Z+, r24
 982:	cb 01       	movw	r24, r22
 984:	00 97       	sbiw	r24, 0x00	; 0
 986:	a1 f7       	brne	.-24     	; 0x970 <itoa+0x1c>
 988:	16 f4       	brtc	.+4      	; 0x98e <itoa+0x3a>
 98a:	5d e2       	ldi	r21, 0x2D	; 45
 98c:	51 93       	st	Z+, r21
 98e:	10 82       	st	Z, r1
 990:	c9 01       	movw	r24, r18
 992:	0c 94 cb 04 	jmp	0x996	; 0x996 <strrev>

00000996 <strrev>:
 996:	dc 01       	movw	r26, r24
 998:	fc 01       	movw	r30, r24
 99a:	67 2f       	mov	r22, r23
 99c:	71 91       	ld	r23, Z+
 99e:	77 23       	and	r23, r23
 9a0:	e1 f7       	brne	.-8      	; 0x99a <strrev+0x4>
 9a2:	32 97       	sbiw	r30, 0x02	; 2
 9a4:	04 c0       	rjmp	.+8      	; 0x9ae <strrev+0x18>
 9a6:	7c 91       	ld	r23, X
 9a8:	6d 93       	st	X+, r22
 9aa:	70 83       	st	Z, r23
 9ac:	62 91       	ld	r22, -Z
 9ae:	ae 17       	cp	r26, r30
 9b0:	bf 07       	cpc	r27, r31
 9b2:	c8 f3       	brcs	.-14     	; 0x9a6 <strrev+0x10>
 9b4:	08 95       	ret

000009b6 <__udivmodhi4>:
 9b6:	aa 1b       	sub	r26, r26
 9b8:	bb 1b       	sub	r27, r27
 9ba:	51 e1       	ldi	r21, 0x11	; 17
 9bc:	07 c0       	rjmp	.+14     	; 0x9cc <__udivmodhi4_ep>

000009be <__udivmodhi4_loop>:
 9be:	aa 1f       	adc	r26, r26
 9c0:	bb 1f       	adc	r27, r27
 9c2:	a6 17       	cp	r26, r22
 9c4:	b7 07       	cpc	r27, r23
 9c6:	10 f0       	brcs	.+4      	; 0x9cc <__udivmodhi4_ep>
 9c8:	a6 1b       	sub	r26, r22
 9ca:	b7 0b       	sbc	r27, r23

000009cc <__udivmodhi4_ep>:
 9cc:	88 1f       	adc	r24, r24
 9ce:	99 1f       	adc	r25, r25
 9d0:	5a 95       	dec	r21
 9d2:	a9 f7       	brne	.-22     	; 0x9be <__udivmodhi4_loop>
 9d4:	80 95       	com	r24
 9d6:	90 95       	com	r25
 9d8:	bc 01       	movw	r22, r24
 9da:	cd 01       	movw	r24, r26
 9dc:	08 95       	ret

000009de <_exit>:
 9de:	f8 94       	cli

000009e0 <__stop_program>:
 9e0:	ff cf       	rjmp	.-2      	; 0x9e0 <__stop_program>
